
build/kernel.bin:     file format elf32-i386


Disassembly of section .text:

00100000 <loader-0xc>:
  100000:	02 b0 ad 1b 03 00    	add    0x31bad(%eax),%dh
  100006:	00 00                	add    %al,(%eax)
  100008:	fb                   	sti    
  100009:	4f 0                  	dec    %edi
  10000a:	52                   	push   %edx
  10000b:	e4                   	.byte 0xe4

0010000c <loader>:
  10000c:	bc e0 1d 10 00       	mov    $0x101de0,%esp
  100011:	e8 70 02 00 00       	call   100286 <callConstructors>
  100016:	50                   	push   %eax
  100017:	53                   	push   %ebx
  100018:	e8 a3 02 00 00       	call   1002c0 <kernelMain>

0010001d <_stop>:
  10001d:	fa                   	cli    
  10001e:	f4                   	hlt    
  10001f:	eb fc                	jmp    10001d <_stop>

00100021 <_Z6printfPKc>:
  100021:	55                   	push   %ebp
  100022:	89 e5                	mov    %esp,%ebp
  100024:	53                   	push   %ebx
  100025:	83 ec 10             	sub    $0x10,%esp
  100028:	e8 56 03 00 00       	call   100383 <__x86.get_pc_thunk.ax>
  10002d:	05 43 1d 00 00       	add    $0x1d43,%eax
  100032:	c7 45 f4 00 80 0b 00 	movl   $0xb8000,-0xc(%ebp)
  100039:	66 c7 45 fa 00 00    	movw   $0x0,-0x6(%ebp)
  10003f:	e9 ad 01 00 00       	jmp    1001f1 <_Z6printfPKc+0x1d0>
  100044:	0f b7 4d fa          	movzwl -0x6(%ebp),%ecx
  100048:	8b 55 08             	mov    0x8(%ebp),%edx
  10004b:	01 ca                	add    %ecx,%edx
  10004d:	0f b6 12             	movzbl (%edx),%edx
  100050:	0f be d2             	movsbl %dl,%edx
  100053:	83 fa 0a             	cmp    $0xa,%edx
  100056:	75 1c                	jne    100074 <_Z6printfPKc+0x53>
  100058:	0f b6 90 71 00 20 00 	movzbl 0x200071(%eax),%edx
  10005f:	83 c2 01             	add    $0x1,%edx
  100062:	88 90 71 00 20 00    	mov    %dl,0x200071(%eax)
  100068:	c6 80 70 00 20 00 00 	movb   $0x0,0x200070(%eax)
  10006f:	e9 83 00 00 00       	jmp    1000f7 <_Z6printfPKc+0xd6>
  100074:	0f b6 90 71 00 20 00 	movzbl 0x200071(%eax),%edx
  10007b:	0f b6 ca             	movzbl %dl,%ecx
  10007e:	89 ca                	mov    %ecx,%edx
  100080:	c1 e2 02             	shl    $0x2,%edx
  100083:	01 ca                	add    %ecx,%edx
  100085:	c1 e2 04             	shl    $0x4,%edx
  100088:	89 d1                	mov    %edx,%ecx
  10008a:	0f b6 90 70 00 20 00 	movzbl 0x200070(%eax),%edx
  100091:	0f b6 d2             	movzbl %dl,%edx
  100094:	01 ca                	add    %ecx,%edx
  100096:	8d 0c 12             	lea    (%edx,%edx,1),%ecx
  100099:	8b 55 f4             	mov    -0xc(%ebp),%edx
  10009c:	01 ca                	add    %ecx,%edx
  10009e:	0f b7 12             	movzwl (%edx),%edx
  1000a1:	89 d3                	mov    %edx,%ebx
  1000a3:	b3 00                	mov    $0x0,%bl
  1000a5:	0f b7 4d fa          	movzwl -0x6(%ebp),%ecx
  1000a9:	8b 55 08             	mov    0x8(%ebp),%edx
  1000ac:	01 ca                	add    %ecx,%edx
  1000ae:	0f b6 12             	movzbl (%edx),%edx
  1000b1:	66 0f be d2          	movsbw %dl,%dx
  1000b5:	09 d3                	or     %edx,%ebx
  1000b7:	0f b6 90 71 00 20 00 	movzbl 0x200071(%eax),%edx
  1000be:	0f b6 ca             	movzbl %dl,%ecx
  1000c1:	89 ca                	mov    %ecx,%edx
  1000c3:	c1 e2 02             	shl    $0x2,%edx
  1000c6:	01 ca                	add    %ecx,%edx
  1000c8:	c1 e2 04             	shl    $0x4,%edx
  1000cb:	89 d1                	mov    %edx,%ecx
  1000cd:	0f b6 90 70 00 20 00 	movzbl 0x200070(%eax),%edx
  1000d4:	0f b6 d2             	movzbl %dl,%edx
  1000d7:	01 ca                	add    %ecx,%edx
  1000d9:	8d 0c 12             	lea    (%edx,%edx,1),%ecx
  1000dc:	8b 55 f4             	mov    -0xc(%ebp),%edx
  1000df:	01 ca                	add    %ecx,%edx
  1000e1:	89 d9                	mov    %ebx,%ecx
  1000e3:	66 89 0a             	mov    %cx,(%edx)
  1000e6:	0f b6 90 70 00 20 00 	movzbl 0x200070(%eax),%edx
  1000ed:	83 c2 01             	add    $0x1,%edx
  1000f0:	88 90 70 00 20 00    	mov    %dl,0x200070(%eax)
  1000f6:	90                   	nop
  1000f7:	0f b6 90 70 00 20 00 	movzbl 0x200070(%eax),%edx
  1000fe:	80 fa 4f             	cmp    $0x4f,%dl
  100101:	76 17                	jbe    10011a <_Z6printfPKc+0xf9>
  100103:	c6 80 70 00 20 00 00 	movb   $0x0,0x200070(%eax)
  10010a:	0f b6 90 71 00 20 00 	movzbl 0x200071(%eax),%edx
  100111:	83 c2 01             	add    $0x1,%edx
  100114:	88 90 71 00 20 00    	mov    %dl,0x200071(%eax)
  10011a:	0f b6 90 71 00 20 00 	movzbl 0x200071(%eax),%edx
  100121:	80 fa 18             	cmp    $0x18,%dl
  100124:	0f 86 c2 00 00 00    	jbe    1001ec <_Z6printfPKc+0x1cb>
  10012a:	c6 80 71 00 20 00 00 	movb   $0x0,0x200071(%eax)
  100131:	e9 98 00 00 00       	jmp    1001ce <_Z6printfPKc+0x1ad>
  100136:	c6 80 70 00 20 00 00 	movb   $0x0,0x200070(%eax)
  10013d:	eb 73                	jmp    1001b2 <_Z6printfPKc+0x191>
  10013f:	0f b6 90 71 00 20 00 	movzbl 0x200071(%eax),%edx
  100146:	0f b6 ca             	movzbl %dl,%ecx
  100149:	89 ca                	mov    %ecx,%edx
  10014b:	c1 e2 02             	shl    $0x2,%edx
  10014e:	01 ca                	add    %ecx,%edx
  100150:	c1 e2 04             	shl    $0x4,%edx
  100153:	89 d1                	mov    %edx,%ecx
  100155:	0f b6 90 70 00 20 00 	movzbl 0x200070(%eax),%edx
  10015c:	0f b6 d2             	movzbl %dl,%edx
  10015f:	01 ca                	add    %ecx,%edx
  100161:	8d 0c 12             	lea    (%edx,%edx,1),%ecx
  100164:	8b 55 f4             	mov    -0xc(%ebp),%edx
  100167:	01 ca                	add    %ecx,%edx
  100169:	0f b7 12             	movzwl (%edx),%edx
  10016c:	89 d3                	mov    %edx,%ebx
  10016e:	b3 00                	mov    $0x0,%bl
  100170:	0f b6 90 71 00 20 00 	movzbl 0x200071(%eax),%edx
  100177:	0f b6 ca             	movzbl %dl,%ecx
  10017a:	89 ca                	mov    %ecx,%edx
  10017c:	c1 e2 02             	shl    $0x2,%edx
  10017f:	01 ca                	add    %ecx,%edx
  100181:	c1 e2 04             	shl    $0x4,%edx
  100184:	89 d1                	mov    %edx,%ecx
  100186:	0f b6 90 70 00 20 00 	movzbl 0x200070(%eax),%edx
  10018d:	0f b6 d2             	movzbl %dl,%edx
  100190:	01 ca                	add    %ecx,%edx
  100192:	8d 0c 12             	lea    (%edx,%edx,1),%ecx
  100195:	8b 55 f4             	mov    -0xc(%ebp),%edx
  100198:	01 ca                	add    %ecx,%edx
  10019a:	83 cb 20             	or     $0x20,%ebx
  10019d:	89 d9                	mov    %ebx,%ecx
  10019f:	66 89 0a             	mov    %cx,(%edx)
  1001a2:	0f b6 90 70 00 20 00 	movzbl 0x200070(%eax),%edx
  1001a9:	83 c2 01             	add    $0x1,%edx
  1001ac:	88 90 70 00 20 00    	mov    %dl,0x200070(%eax)
  1001b2:	0f b6 90 70 00 20 00 	movzbl 0x200070(%eax),%edx
  1001b9:	80 fa 4f             	cmp    $0x4f,%dl
  1001bc:	76 81                	jbe    10013f <_Z6printfPKc+0x11e>
  1001be:	0f b6 90 71 00 20 00 	movzbl 0x200071(%eax),%edx
  1001c5:	83 c2 01             	add    $0x1,%edx
  1001c8:	88 90 71 00 20 00    	mov    %dl,0x200071(%eax)
  1001ce:	0f b6 90 71 00 20 00 	movzbl 0x200071(%eax),%edx
  1001d5:	80 fa 18             	cmp    $0x18,%dl
  1001d8:	0f 86 58 ff ff ff    	jbe    100136 <_Z6printfPKc+0x115>
  1001de:	c6 80 70 00 20 00 00 	movb   $0x0,0x200070(%eax)
  1001e5:	c6 80 71 00 20 00 00 	movb   $0x0,0x200071(%eax)
  1001ec:	66 83 45 fa 01       	addw   $0x1,-0x6(%ebp)
  1001f1:	0f b7 4d fa          	movzwl -0x6(%ebp),%ecx
  1001f5:	8b 55 08             	mov    0x8(%ebp),%edx
  1001f8:	01 ca                	add    %ecx,%edx
  1001fa:	0f b6 12             	movzbl (%edx),%edx
  1001fd:	84 d2                	test   %dl,%dl
  1001ff:	0f 85 3f fe ff ff    	jne    100044 <_Z6printfPKc+0x23>
  100205:	90                   	nop
  100206:	90                   	nop
  100207:	8b 5d fc             	mov    -0x4(%ebp),%ebx
  10020a:	c9                   	leave  
  10020b:	c3                   	ret    

0010020c <_Z9printfHexh>:
  10020c:	55                   	push   %ebp
  10020d:	89 e5                	mov    %esp,%ebp
  10020f:	83 ec 14             	sub    $0x14,%esp
  100212:	e8 6c 01 00 00       	call   100383 <__x86.get_pc_thunk.ax>
  100217:	05 59 1b 00 00       	add    $0x1b59,%eax
  10021c:	8b 55 08             	mov    0x8(%ebp),%edx
  10021f:	88 55 ec             	mov    %dl,-0x14(%ebp)
  100222:	8d 90 38 f9 ff ff    	lea    -0x6c8(%eax),%edx
  100228:	89 55 fc             	mov    %edx,-0x4(%ebp)
  10022b:	8d 90 3b f9 ff ff    	lea    -0x6c5(%eax),%edx
  100231:	89 55 f8             	mov    %edx,-0x8(%ebp)
  100234:	0f b6 55 ec          	movzbl -0x14(%ebp),%edx
  100238:	c0 ea 04             	shr    $0x4,%dl
  10023b:	0f b6 d2             	movzbl %dl,%edx
  10023e:	89 d1                	mov    %edx,%ecx
  100240:	83 e1 0f             	and    $0xf,%ecx
  100243:	8b 55 f8             	mov    -0x8(%ebp),%edx
  100246:	01 ca                	add    %ecx,%edx
  100248:	0f b6 0a             	movzbl (%edx),%ecx
  10024b:	8b 55 fc             	mov    -0x4(%ebp),%edx
  10024e:	88 0a                	mov    %cl,(%edx)
  100250:	0f b6 55 ec          	movzbl -0x14(%ebp),%edx
  100254:	89 d1                	mov    %edx,%ecx
  100256:	83 e1 0f             	and    $0xf,%ecx
  100259:	8b 55 f8             	mov    -0x8(%ebp),%edx
  10025c:	01 ca                	add    %ecx,%edx
  10025e:	8b 4d fc             	mov    -0x4(%ebp),%ecx
  100261:	83 c1 01             	add    $0x1,%ecx
  100264:	0f b6 12             	movzbl (%edx),%edx
  100267:	88 11                	mov    %dl,(%ecx)
  100269:	8d 80 4c f9 ff ff    	lea    -0x6b4(%eax),%eax
  10026f:	50                   	push   %eax
  100270:	e8 ac fd ff ff       	call   100021 <_Z6printfPKc>
  100275:	83 c4 04             	add    $0x4,%esp
  100278:	ff 75 fc             	push   -0x4(%ebp)
  10027b:	e8 a1 fd ff ff       	call   100021 <_Z6printfPKc>
  100280:	83 c4 04             	add    $0x4,%esp
  100283:	90                   	nop
  100284:	c9                   	leave  
  100285:	c3                   	ret    

00100286 <callConstructors>:
  100286:	55                   	push   %ebp
  100287:	89 e5                	mov    %esp,%ebp
  100289:	53                   	push   %ebx
  10028a:	83 ec 14             	sub    $0x14,%esp
  10028d:	e8 f5 00 00 00       	call   100387 <__x86.get_pc_thunk.bx>
  100292:	81 c3 de 1a 00 00    	add    $0x1ade,%ebx
  100298:	c7 c0 6c 1d 10 00    	mov    $0x101d6c,%eax
  10029e:	89 45 f4             	mov    %eax,-0xc(%ebp)
  1002a1:	eb 0b                	jmp    1002ae <callConstructors+0x28>
  1002a3:	8b 45 f4             	mov    -0xc(%ebp),%eax
  1002a6:	8b 00                	mov    (%eax),%eax
  1002a8:	ff d0                	call   *%eax
  1002aa:	83 45 f4 04          	addl   $0x4,-0xc(%ebp)
  1002ae:	c7 c0 6c 1d 10 00    	mov    $0x101d6c,%eax
  1002b4:	39 45 f4             	cmp    %eax,-0xc(%ebp)
  1002b7:	75 ea                	jne    1002a3 <callConstructors+0x1d>
  1002b9:	90                   	nop
  1002ba:	90                   	nop
  1002bb:	8b 5d fc             	mov    -0x4(%ebp),%ebx
  1002be:	c9                   	leave  
  1002bf:	c3                   	ret    

001002c0 <kernelMain>:
  1002c0:	55                   	push   %ebp
  1002c1:	89 e5                	mov    %esp,%ebp
  1002c3:	53                   	push   %ebx
  1002c4:	81 ec 64 04 00 00    	sub    $0x464,%esp
  1002ca:	e8 b8 00 00 00       	call   100387 <__x86.get_pc_thunk.bx>
  1002cf:	81 c3 a1 1a 00 00    	add    $0x1aa1,%ebx
  1002d5:	8d 83 4f f9 ff ff    	lea    -0x6b1(%ebx),%eax
  1002db:	50                   	push   %eax
  1002dc:	e8 40 fd ff ff       	call   100021 <_Z6printfPKc>
  1002e1:	83 c4 04             	add    $0x4,%esp
  1002e4:	8d 83 54 f9 ff ff    	lea    -0x6ac(%ebx),%eax
  1002ea:	50                   	push   %eax
  1002eb:	e8 31 fd ff ff       	call   100021 <_Z6printfPKc>
  1002f0:	83 c4 04             	add    $0x4,%esp
  1002f3:	8d 83 88 f9 ff ff    	lea    -0x678(%ebx),%eax
  1002f9:	50                   	push   %eax
  1002fa:	e8 22 fd ff ff       	call   100021 <_Z6printfPKc>
  1002ff:	83 c4 04             	add    $0x4,%esp
  100302:	8d 83 bc f9 ff ff    	lea    -0x644(%ebx),%eax
  100308:	50                   	push   %eax
  100309:	e8 13 fd ff ff       	call   100021 <_Z6printfPKc>
  10030e:	83 c4 04             	add    $0x4,%esp
  100311:	8d 83 54 f9 ff ff    	lea    -0x6ac(%ebx),%eax
  100317:	50                   	push   %eax
  100318:	e8 04 fd ff ff       	call   100021 <_Z6printfPKc>
  10031d:	83 c4 04             	add    $0x4,%esp
  100320:	8d 83 4f f9 ff ff    	lea    -0x6b1(%ebx),%eax
  100326:	50                   	push   %eax
  100327:	e8 f5 fc ff ff       	call   100021 <_Z6printfPKc>
  10032c:	83 c4 04             	add    $0x4,%esp
  10032f:	83 ec 0c             	sub    $0xc,%esp
  100332:	8d 45 d8             	lea    -0x28(%ebp),%eax
  100335:	50                   	push   %eax
  100336:	e8 51 00 00 00       	call   10038c <_ZN21GlobalDescriptorTableC1Ev>
  10033b:	83 c4 10             	add    $0x10,%esp
  10033e:	83 ec 04             	sub    $0x4,%esp
  100341:	8d 45 d8             	lea    -0x28(%ebp),%eax
  100344:	50                   	push   %eax
  100345:	6a 20                	push   $0x20
  100347:	8d 85 b4 fb ff ff    	lea    -0x44c(%ebp),%eax
  10034d:	50                   	push   %eax
  10034e:	e8 af 08 00 00       	call   100c02 <_ZN16InterruptManagerC1EtP21GlobalDescriptorTable>
  100353:	83 c4 10             	add    $0x10,%esp
  100356:	83 ec 08             	sub    $0x8,%esp
  100359:	8d 85 b4 fb ff ff    	lea    -0x44c(%ebp),%eax
  10035f:	50                   	push   %eax
  100360:	8d 85 98 fb ff ff    	lea    -0x468(%ebp),%eax
  100366:	50                   	push   %eax
  100367:	e8 76 11 00 00       	call   1014e2 <_ZN14KeyboardDriverC1EP16InterruptManager>
  10036c:	83 c4 10             	add    $0x10,%esp
  10036f:	83 ec 0c             	sub    $0xc,%esp
  100372:	8d 85 b4 fb ff ff    	lea    -0x44c(%ebp),%eax
  100378:	50                   	push   %eax
  100379:	e8 00 10 00 00       	call   10137e <_ZN16InterruptManager8ActivateEv>
  10037e:	83 c4 10             	add    $0x10,%esp
  100381:	eb fe                	jmp    100381 <kernelMain+0xc1>

00100383 <__x86.get_pc_thunk.ax>:
  100383:	8b 04 24             	mov    (%esp),%eax
  100386:	c3                   	ret    

00100387 <__x86.get_pc_thunk.bx>:
  100387:	8b 1c 24             	mov    (%esp),%ebx
  10038a:	c3                   	ret    
  10038b:	90                   	nop

0010038c <_ZN21GlobalDescriptorTableC1Ev>:
  10038c:	55                   	push   %ebp
  10038d:	89 e5                	mov    %esp,%ebp
  10038f:	83 ec 18             	sub    $0x18,%esp
  100392:	e8 ec ff ff ff       	call   100383 <__x86.get_pc_thunk.ax>
  100397:	05 d9 19 00 00       	add    $0x19d9,%eax
  10039c:	8b 45 08             	mov    0x8(%ebp),%eax
  10039f:	6a 00                	push   $0x0
  1003a1:	6a 00                	push   $0x0
  1003a3:	6a 00                	push   $0x0
  1003a5:	50                   	push   %eax
  1003a6:	e8 9f 00 00 00       	call   10044a <_ZN21GlobalDescriptorTable17SegmentDescriptorC1Ejjh>
  1003ab:	83 c4 10             	add    $0x10,%esp
  1003ae:	8b 45 08             	mov    0x8(%ebp),%eax
  1003b1:	83 c0 08             	add    $0x8,%eax
  1003b4:	6a 00                	push   $0x0
  1003b6:	6a 00                	push   $0x0
  1003b8:	6a 00                	push   $0x0
  1003ba:	50                   	push   %eax
  1003bb:	e8 8a 00 00 00       	call   10044a <_ZN21GlobalDescriptorTable17SegmentDescriptorC1Ejjh>
  1003c0:	83 c4 10             	add    $0x10,%esp
  1003c3:	8b 45 08             	mov    0x8(%ebp),%eax
  1003c6:	83 c0 10             	add    $0x10,%eax
  1003c9:	68 9a 00 00 00       	push   $0x9a
  1003ce:	68 00 00 00 04       	push   $0x4000000
  1003d3:	6a 00                	push   $0x0
  1003d5:	50                   	push   %eax
  1003d6:	e8 6f 00 00 00       	call   10044a <_ZN21GlobalDescriptorTable17SegmentDescriptorC1Ejjh>
  1003db:	83 c4 10             	add    $0x10,%esp
  1003de:	8b 45 08             	mov    0x8(%ebp),%eax
  1003e1:	83 c0 18             	add    $0x18,%eax
  1003e4:	68 92 00 00 00       	push   $0x92
  1003e9:	68 00 00 00 04       	push   $0x4000000
  1003ee:	6a 00                	push   $0x0
  1003f0:	50                   	push   %eax
  1003f1:	e8 54 00 00 00       	call   10044a <_ZN21GlobalDescriptorTable17SegmentDescriptorC1Ejjh>
  1003f6:	83 c4 10             	add    $0x10,%esp
  1003f9:	8b 45 08             	mov    0x8(%ebp),%eax
  1003fc:	89 45 f4             	mov    %eax,-0xc(%ebp)
  1003ff:	c7 45 f0 00 00 20 00 	movl   $0x200000,-0x10(%ebp)
  100406:	8d 45 f0             	lea    -0x10(%ebp),%eax
  100409:	83 c0 02             	add    $0x2,%eax
  10040c:	0f 01 10             	lgdtl  (%eax)
  10040f:	90                   	nop
  100410:	c9                   	leave  
  100411:	c3                   	ret    

00100412 <_ZN21GlobalDescriptorTableD1Ev>:
  100412:	55                   	push   %ebp
  100413:	89 e5                	mov    %esp,%ebp
  100415:	e8 69 ff ff ff       	call   100383 <__x86.get_pc_thunk.ax>
  10041a:	05 56 19 00 00       	add    $0x1956,%eax
  10041f:	90                   	nop
  100420:	5d                   	pop    %ebp
  100421:	c3                   	ret    

00100422 <_ZN21GlobalDescriptorTable19DataSegmentSelectorEv>:
  100422:	55                   	push   %ebp
  100423:	89 e5                	mov    %esp,%ebp
  100425:	e8 59 ff ff ff       	call   100383 <__x86.get_pc_thunk.ax>
  10042a:	05 46 19 00 00       	add    $0x1946,%eax
  10042f:	b8 18 00 00 00       	mov    $0x18,%eax
  100434:	5d                   	pop    %ebp
  100435:	c3                   	ret    

00100436 <_ZN21GlobalDescriptorTable19CodeSegmentSelectorEv>:
  100436:	55                   	push   %ebp
  100437:	89 e5                	mov    %esp,%ebp
  100439:	e8 45 ff ff ff       	call   100383 <__x86.get_pc_thunk.ax>
  10043e:	05 32 19 00 00       	add    $0x1932,%eax
  100443:	b8 10 00 00 00       	mov    $0x10,%eax
  100448:	5d                   	pop    %ebp
  100449:	c3                   	ret    

0010044a <_ZN21GlobalDescriptorTable17SegmentDescriptorC1Ejjh>:
  10044a:	55                   	push   %ebp
  10044b:	89 e5                	mov    %esp,%ebp
  10044d:	83 ec 14             	sub    $0x14,%esp
  100450:	e8 2e ff ff ff       	call   100383 <__x86.get_pc_thunk.ax>
  100455:	05 1b 19 00 00       	add    $0x191b,%eax
  10045a:	8b 45 14             	mov    0x14(%ebp),%eax
  10045d:	88 45 ec             	mov    %al,-0x14(%ebp)
  100460:	8b 45 08             	mov    0x8(%ebp),%eax
  100463:	89 45 fc             	mov    %eax,-0x4(%ebp)
  100466:	81 7d 10 00 00 01 00 	cmpl   $0x10000,0x10(%ebp)
  10046d:	77 0b                	ja     10047a <_ZN21GlobalDescriptorTable17SegmentDescriptorC1Ejjh+0x30>
  10046f:	8b 45 fc             	mov    -0x4(%ebp),%eax
  100472:	83 c0 06             	add    $0x6,%eax
  100475:	c6 00 40             	movb   $0x40,(%eax)
  100478:	eb 2a                	jmp    1004a4 <_ZN21GlobalDescriptorTable17SegmentDescriptorC1Ejjh+0x5a>
  10047a:	8b 45 10             	mov    0x10(%ebp),%eax
  10047d:	25 ff 0f 00 00       	and    $0xfff,%eax
  100482:	3d ff 0f 00 00       	cmp    $0xfff,%eax
  100487:	74 0e                	je     100497 <_ZN21GlobalDescriptorTable17SegmentDescriptorC1Ejjh+0x4d>
  100489:	8b 45 10             	mov    0x10(%ebp),%eax
  10048c:	c1 e8 0c             	shr    $0xc,%eax
  10048f:	83 e8 01             	sub    $0x1,%eax
  100492:	89 45 10             	mov    %eax,0x10(%ebp)
  100495:	eb 04                	jmp    10049b <_ZN21GlobalDescriptorTable17SegmentDescriptorC1Ejjh+0x51>
  100497:	c1 6d 10 0c          	shrl   $0xc,0x10(%ebp)
  10049b:	8b 45 fc             	mov    -0x4(%ebp),%eax
  10049e:	83 c0 06             	add    $0x6,%eax
  1004a1:	c6 00 c0             	movb   $0xc0,(%eax)
  1004a4:	8b 45 10             	mov    0x10(%ebp),%eax
  1004a7:	89 c2                	mov    %eax,%edx
  1004a9:	8b 45 fc             	mov    -0x4(%ebp),%eax
  1004ac:	88 10                	mov    %dl,(%eax)
  1004ae:	8b 45 10             	mov    0x10(%ebp),%eax
  1004b1:	c1 e8 08             	shr    $0x8,%eax
  1004b4:	89 c2                	mov    %eax,%edx
  1004b6:	8b 45 fc             	mov    -0x4(%ebp),%eax
  1004b9:	83 c0 01             	add    $0x1,%eax
  1004bc:	88 10                	mov    %dl,(%eax)
  1004be:	8b 45 fc             	mov    -0x4(%ebp),%eax
  1004c1:	83 c0 06             	add    $0x6,%eax
  1004c4:	0f b6 10             	movzbl (%eax),%edx
  1004c7:	8b 45 10             	mov    0x10(%ebp),%eax
  1004ca:	c1 e8 10             	shr    $0x10,%eax
  1004cd:	83 e0 0f             	and    $0xf,%eax
  1004d0:	89 c1                	mov    %eax,%ecx
  1004d2:	8b 45 fc             	mov    -0x4(%ebp),%eax
  1004d5:	83 c0 06             	add    $0x6,%eax
  1004d8:	09 ca                	or     %ecx,%edx
  1004da:	88 10                	mov    %dl,(%eax)
  1004dc:	8b 45 fc             	mov    -0x4(%ebp),%eax
  1004df:	83 c0 02             	add    $0x2,%eax
  1004e2:	8b 55 0c             	mov    0xc(%ebp),%edx
  1004e5:	88 10                	mov    %dl,(%eax)
  1004e7:	8b 45 0c             	mov    0xc(%ebp),%eax
  1004ea:	c1 e8 08             	shr    $0x8,%eax
  1004ed:	89 c2                	mov    %eax,%edx
  1004ef:	8b 45 fc             	mov    -0x4(%ebp),%eax
  1004f2:	83 c0 03             	add    $0x3,%eax
  1004f5:	88 10                	mov    %dl,(%eax)
  1004f7:	8b 45 0c             	mov    0xc(%ebp),%eax
  1004fa:	c1 e8 10             	shr    $0x10,%eax
  1004fd:	89 c2                	mov    %eax,%edx
  1004ff:	8b 45 fc             	mov    -0x4(%ebp),%eax
  100502:	83 c0 04             	add    $0x4,%eax
  100505:	88 10                	mov    %dl,(%eax)
  100507:	8b 45 0c             	mov    0xc(%ebp),%eax
  10050a:	c1 e8 18             	shr    $0x18,%eax
  10050d:	89 c2                	mov    %eax,%edx
  10050f:	8b 45 fc             	mov    -0x4(%ebp),%eax
  100512:	83 c0 07             	add    $0x7,%eax
  100515:	88 10                	mov    %dl,(%eax)
  100517:	8b 45 fc             	mov    -0x4(%ebp),%eax
  10051a:	8d 50 05             	lea    0x5(%eax),%edx
  10051d:	0f b6 45 ec          	movzbl -0x14(%ebp),%eax
  100521:	88 02                	mov    %al,(%edx)
  100523:	90                   	nop
  100524:	c9                   	leave  
  100525:	c3                   	ret    

00100526 <_ZN21GlobalDescriptorTable17SegmentDescriptor4BaseEv>:
  100526:	55                   	push   %ebp
  100527:	89 e5                	mov    %esp,%ebp
  100529:	83 ec 10             	sub    $0x10,%esp
  10052c:	e8 52 fe ff ff       	call   100383 <__x86.get_pc_thunk.ax>
  100531:	05 3f 18 00 00       	add    $0x183f,%eax
  100536:	8b 45 08             	mov    0x8(%ebp),%eax
  100539:	89 45 fc             	mov    %eax,-0x4(%ebp)
  10053c:	8b 45 fc             	mov    -0x4(%ebp),%eax
  10053f:	83 c0 07             	add    $0x7,%eax
  100542:	0f b6 00             	movzbl (%eax),%eax
  100545:	0f b6 c0             	movzbl %al,%eax
  100548:	89 45 f8             	mov    %eax,-0x8(%ebp)
  10054b:	8b 45 f8             	mov    -0x8(%ebp),%eax
  10054e:	c1 e0 08             	shl    $0x8,%eax
  100551:	89 c2                	mov    %eax,%edx
  100553:	8b 45 fc             	mov    -0x4(%ebp),%eax
  100556:	83 c0 04             	add    $0x4,%eax
  100559:	0f b6 00             	movzbl (%eax),%eax
  10055c:	0f b6 c0             	movzbl %al,%eax
  10055f:	01 d0                	add    %edx,%eax
  100561:	89 45 f8             	mov    %eax,-0x8(%ebp)
  100564:	8b 45 f8             	mov    -0x8(%ebp),%eax
  100567:	c1 e0 08             	shl    $0x8,%eax
  10056a:	89 c2                	mov    %eax,%edx
  10056c:	8b 45 fc             	mov    -0x4(%ebp),%eax
  10056f:	83 c0 03             	add    $0x3,%eax
  100572:	0f b6 00             	movzbl (%eax),%eax
  100575:	0f b6 c0             	movzbl %al,%eax
  100578:	01 d0                	add    %edx,%eax
  10057a:	89 45 f8             	mov    %eax,-0x8(%ebp)
  10057d:	8b 45 f8             	mov    -0x8(%ebp),%eax
  100580:	c1 e0 08             	shl    $0x8,%eax
  100583:	89 c2                	mov    %eax,%edx
  100585:	8b 45 fc             	mov    -0x4(%ebp),%eax
  100588:	83 c0 02             	add    $0x2,%eax
  10058b:	0f b6 00             	movzbl (%eax),%eax
  10058e:	0f b6 c0             	movzbl %al,%eax
  100591:	01 d0                	add    %edx,%eax
  100593:	89 45 f8             	mov    %eax,-0x8(%ebp)
  100596:	8b 45 f8             	mov    -0x8(%ebp),%eax
  100599:	c9                   	leave  
  10059a:	c3                   	ret    
  10059b:	90                   	nop

0010059c <_ZN21GlobalDescriptorTable17SegmentDescriptor5LimitEv>:
  10059c:	55                   	push   %ebp
  10059d:	89 e5                	mov    %esp,%ebp
  10059f:	83 ec 10             	sub    $0x10,%esp
  1005a2:	e8 dc fd ff ff       	call   100383 <__x86.get_pc_thunk.ax>
  1005a7:	05 c9 17 00 00       	add    $0x17c9,%eax
  1005ac:	8b 45 08             	mov    0x8(%ebp),%eax
  1005af:	89 45 f8             	mov    %eax,-0x8(%ebp)
  1005b2:	8b 45 f8             	mov    -0x8(%ebp),%eax
  1005b5:	83 c0 06             	add    $0x6,%eax
  1005b8:	0f b6 00             	movzbl (%eax),%eax
  1005bb:	0f b6 c0             	movzbl %al,%eax
  1005be:	83 e0 0f             	and    $0xf,%eax
  1005c1:	89 45 fc             	mov    %eax,-0x4(%ebp)
  1005c4:	8b 45 fc             	mov    -0x4(%ebp),%eax
  1005c7:	c1 e0 08             	shl    $0x8,%eax
  1005ca:	89 c2                	mov    %eax,%edx
  1005cc:	8b 45 f8             	mov    -0x8(%ebp),%eax
  1005cf:	83 c0 01             	add    $0x1,%eax
  1005d2:	0f b6 00             	movzbl (%eax),%eax
  1005d5:	0f b6 c0             	movzbl %al,%eax
  1005d8:	01 d0                	add    %edx,%eax
  1005da:	89 45 fc             	mov    %eax,-0x4(%ebp)
  1005dd:	8b 45 fc             	mov    -0x4(%ebp),%eax
  1005e0:	c1 e0 08             	shl    $0x8,%eax
  1005e3:	89 c2                	mov    %eax,%edx
  1005e5:	8b 45 f8             	mov    -0x8(%ebp),%eax
  1005e8:	0f b6 00             	movzbl (%eax),%eax
  1005eb:	0f b6 c0             	movzbl %al,%eax
  1005ee:	01 d0                	add    %edx,%eax
  1005f0:	89 45 fc             	mov    %eax,-0x4(%ebp)
  1005f3:	8b 45 f8             	mov    -0x8(%ebp),%eax
  1005f6:	83 c0 06             	add    $0x6,%eax
  1005f9:	0f b6 00             	movzbl (%eax),%eax
  1005fc:	0f b6 c0             	movzbl %al,%eax
  1005ff:	25 c0 00 00 00       	and    $0xc0,%eax
  100604:	3d c0 00 00 00       	cmp    $0xc0,%eax
  100609:	75 0e                	jne    100619 <_ZN21GlobalDescriptorTable17SegmentDescriptor5LimitEv+0x7d>
  10060b:	8b 45 fc             	mov    -0x4(%ebp),%eax
  10060e:	c1 e0 0c             	shl    $0xc,%eax
  100611:	0d ff 0f 00 00       	or     $0xfff,%eax
  100616:	89 45 fc             	mov    %eax,-0x4(%ebp)
  100619:	8b 45 fc             	mov    -0x4(%ebp),%eax
  10061c:	c9                   	leave  
  10061d:	c3                   	ret    

0010061e <_ZdlPvj>:
  10061e:	55                   	push   %ebp
  10061f:	89 e5                	mov    %esp,%ebp
  100621:	e8 5d fd ff ff       	call   100383 <__x86.get_pc_thunk.ax>
  100626:	05 4a 17 00 00       	add    $0x174a,%eax
  10062b:	90                   	nop
  10062c:	5d                   	pop    %ebp
  10062d:	c3                   	ret    

0010062e <_ZdlPv>:
  10062e:	55                   	push   %ebp
  10062f:	89 e5                	mov    %esp,%ebp
  100631:	e8 4d fd ff ff       	call   100383 <__x86.get_pc_thunk.ax>
  100636:	05 3a 17 00 00       	add    $0x173a,%eax
  10063b:	90                   	nop
  10063c:	5d                   	pop    %ebp
  10063d:	c3                   	ret    

0010063e <_ZN4PortC1Et>:
  10063e:	55                   	push   %ebp
  10063f:	89 e5                	mov    %esp,%ebp
  100641:	83 ec 04             	sub    $0x4,%esp
  100644:	e8 3a fd ff ff       	call   100383 <__x86.get_pc_thunk.ax>
  100649:	05 27 17 00 00       	add    $0x1727,%eax
  10064e:	8b 45 0c             	mov    0xc(%ebp),%eax
  100651:	66 89 45 fc          	mov    %ax,-0x4(%ebp)
  100655:	8b 45 08             	mov    0x8(%ebp),%eax
  100658:	0f b7 55 fc          	movzwl -0x4(%ebp),%edx
  10065c:	66 89 10             	mov    %dx,(%eax)
  10065f:	90                   	nop
  100660:	c9                   	leave  
  100661:	c3                   	ret    

00100662 <_ZN4PortD1Ev>:
  100662:	55                   	push   %ebp
  100663:	89 e5                	mov    %esp,%ebp
  100665:	e8 19 fd ff ff       	call   100383 <__x86.get_pc_thunk.ax>
  10066a:	05 06 17 00 00       	add    $0x1706,%eax
  10066f:	90                   	nop
  100670:	5d                   	pop    %ebp
  100671:	c3                   	ret    

00100672 <_ZN8Port8BitC1Et>:
  100672:	55                   	push   %ebp
  100673:	89 e5                	mov    %esp,%ebp
  100675:	53                   	push   %ebx
  100676:	83 ec 04             	sub    $0x4,%esp
  100679:	e8 09 fd ff ff       	call   100387 <__x86.get_pc_thunk.bx>
  10067e:	81 c3 f2 16 00 00    	add    $0x16f2,%ebx
  100684:	8b 45 0c             	mov    0xc(%ebp),%eax
  100687:	66 89 45 f8          	mov    %ax,-0x8(%ebp)
  10068b:	8b 45 08             	mov    0x8(%ebp),%eax
  10068e:	8d 50 04             	lea    0x4(%eax),%edx
  100691:	0f b7 45 f8          	movzwl -0x8(%ebp),%eax
  100695:	50                   	push   %eax
  100696:	52                   	push   %edx
  100697:	e8 a2 ff ff ff       	call   10063e <_ZN4PortC1Et>
  10069c:	83 c4 08             	add    $0x8,%esp
  10069f:	8d 93 40 00 00 00    	lea    0x40(%ebx),%edx
  1006a5:	8b 45 08             	mov    0x8(%ebp),%eax
  1006a8:	89 10                	mov    %edx,(%eax)
  1006aa:	90                   	nop
  1006ab:	8b 5d fc             	mov    -0x4(%ebp),%ebx
  1006ae:	c9                   	leave  
  1006af:	c3                   	ret    

001006b0 <_ZN8Port8BitD1Ev>:
  1006b0:	55                   	push   %ebp
  1006b1:	89 e5                	mov    %esp,%ebp
  1006b3:	e8 cb fc ff ff       	call   100383 <__x86.get_pc_thunk.ax>
  1006b8:	05 b8 16 00 00       	add    $0x16b8,%eax
  1006bd:	8d 90 40 00 00 00    	lea    0x40(%eax),%edx
  1006c3:	8b 45 08             	mov    0x8(%ebp),%eax
  1006c6:	89 10                	mov    %edx,(%eax)
  1006c8:	8b 45 08             	mov    0x8(%ebp),%eax
  1006cb:	83 c0 04             	add    $0x4,%eax
  1006ce:	50                   	push   %eax
  1006cf:	e8 8e ff ff ff       	call   100662 <_ZN4PortD1Ev>
  1006d4:	83 c4 04             	add    $0x4,%esp
  1006d7:	90                   	nop
  1006d8:	c9                   	leave  
  1006d9:	c3                   	ret    

001006da <_ZN8Port8Bit5WriteEh>:
  1006da:	55                   	push   %ebp
  1006db:	89 e5                	mov    %esp,%ebp
  1006dd:	83 ec 04             	sub    $0x4,%esp
  1006e0:	e8 9e fc ff ff       	call   100383 <__x86.get_pc_thunk.ax>
  1006e5:	05 8b 16 00 00       	add    $0x168b,%eax
  1006ea:	8b 45 0c             	mov    0xc(%ebp),%eax
  1006ed:	88 45 fc             	mov    %al,-0x4(%ebp)
  1006f0:	8b 45 08             	mov    0x8(%ebp),%eax
  1006f3:	0f b7 50 04          	movzwl 0x4(%eax),%edx
  1006f7:	0f b6 45 fc          	movzbl -0x4(%ebp),%eax
  1006fb:	ee                   	out    %al,(%dx)
  1006fc:	90                   	nop
  1006fd:	c9                   	leave  
  1006fe:	c3                   	ret    
  1006ff:	90                   	nop

00100700 <_ZN8Port8Bit4ReadEv>:
  100700:	55                   	push   %ebp
  100701:	89 e5                	mov    %esp,%ebp
  100703:	83 ec 10             	sub    $0x10,%esp
  100706:	e8 78 fc ff ff       	call   100383 <__x86.get_pc_thunk.ax>
  10070b:	05 65 16 00 00       	add    $0x1665,%eax
  100710:	8b 45 08             	mov    0x8(%ebp),%eax
  100713:	0f b7 40 04          	movzwl 0x4(%eax),%eax
  100717:	89 c2                	mov    %eax,%edx
  100719:	ec                   	in     (%dx),%al
  10071a:	88 45 ff             	mov    %al,-0x1(%ebp)
  10071d:	0f b6 45 ff          	movzbl -0x1(%ebp),%eax
  100721:	c9                   	leave  
  100722:	c3                   	ret    
  100723:	90                   	nop

00100724 <_ZN9Port16BitC1Et>:
  100724:	55                   	push   %ebp
  100725:	89 e5                	mov    %esp,%ebp
  100727:	53                   	push   %ebx
  100728:	83 ec 04             	sub    $0x4,%esp
  10072b:	e8 57 fc ff ff       	call   100387 <__x86.get_pc_thunk.bx>
  100730:	81 c3 40 16 00 00    	add    $0x1640,%ebx
  100736:	8b 45 0c             	mov    0xc(%ebp),%eax
  100739:	66 89 45 f8          	mov    %ax,-0x8(%ebp)
  10073d:	8b 45 08             	mov    0x8(%ebp),%eax
  100740:	8d 50 04             	lea    0x4(%eax),%edx
  100743:	0f b7 45 f8          	movzwl -0x8(%ebp),%eax
  100747:	50                   	push   %eax
  100748:	52                   	push   %edx
  100749:	e8 f0 fe ff ff       	call   10063e <_ZN4PortC1Et>
  10074e:	83 c4 08             	add    $0x8,%esp
  100751:	8d 93 30 00 00 00    	lea    0x30(%ebx),%edx
  100757:	8b 45 08             	mov    0x8(%ebp),%eax
  10075a:	89 10                	mov    %edx,(%eax)
  10075c:	90                   	nop
  10075d:	8b 5d fc             	mov    -0x4(%ebp),%ebx
  100760:	c9                   	leave  
  100761:	c3                   	ret    

00100762 <_ZN9Port16BitD1Ev>:
  100762:	55                   	push   %ebp
  100763:	89 e5                	mov    %esp,%ebp
  100765:	e8 19 fc ff ff       	call   100383 <__x86.get_pc_thunk.ax>
  10076a:	05 06 16 00 00       	add    $0x1606,%eax
  10076f:	8d 90 30 00 00 00    	lea    0x30(%eax),%edx
  100775:	8b 45 08             	mov    0x8(%ebp),%eax
  100778:	89 10                	mov    %edx,(%eax)
  10077a:	8b 45 08             	mov    0x8(%ebp),%eax
  10077d:	83 c0 04             	add    $0x4,%eax
  100780:	50                   	push   %eax
  100781:	e8 dc fe ff ff       	call   100662 <_ZN4PortD1Ev>
  100786:	83 c4 04             	add    $0x4,%esp
  100789:	90                   	nop
  10078a:	c9                   	leave  
  10078b:	c3                   	ret    

0010078c <_ZN9Port16Bit5WriteEt>:
  10078c:	55                   	push   %ebp
  10078d:	89 e5                	mov    %esp,%ebp
  10078f:	83 ec 04             	sub    $0x4,%esp
  100792:	e8 ec fb ff ff       	call   100383 <__x86.get_pc_thunk.ax>
  100797:	05 d9 15 00 00       	add    $0x15d9,%eax
  10079c:	8b 45 0c             	mov    0xc(%ebp),%eax
  10079f:	66 89 45 fc          	mov    %ax,-0x4(%ebp)
  1007a3:	8b 45 08             	mov    0x8(%ebp),%eax
  1007a6:	0f b7 50 04          	movzwl 0x4(%eax),%edx
  1007aa:	0f b7 45 fc          	movzwl -0x4(%ebp),%eax
  1007ae:	66 ef                	out    %ax,(%dx)
  1007b0:	90                   	nop
  1007b1:	c9                   	leave  
  1007b2:	c3                   	ret    
  1007b3:	90                   	nop

001007b4 <_ZN9Port16Bit4ReadEv>:
  1007b4:	55                   	push   %ebp
  1007b5:	89 e5                	mov    %esp,%ebp
  1007b7:	83 ec 10             	sub    $0x10,%esp
  1007ba:	e8 c4 fb ff ff       	call   100383 <__x86.get_pc_thunk.ax>
  1007bf:	05 b1 15 00 00       	add    $0x15b1,%eax
  1007c4:	8b 45 08             	mov    0x8(%ebp),%eax
  1007c7:	0f b7 40 04          	movzwl 0x4(%eax),%eax
  1007cb:	89 c2                	mov    %eax,%edx
  1007cd:	66 ed                	in     (%dx),%ax
  1007cf:	66 89 45 fe          	mov    %ax,-0x2(%ebp)
  1007d3:	0f b7 45 fe          	movzwl -0x2(%ebp),%eax
  1007d7:	c9                   	leave  
  1007d8:	c3                   	ret    
  1007d9:	90                   	nop

001007da <_ZN9Port32BitC1Et>:
  1007da:	55                   	push   %ebp
  1007db:	89 e5                	mov    %esp,%ebp
  1007dd:	53                   	push   %ebx
  1007de:	83 ec 04             	sub    $0x4,%esp
  1007e1:	e8 a1 fb ff ff       	call   100387 <__x86.get_pc_thunk.bx>
  1007e6:	81 c3 8a 15 00 00    	add    $0x158a,%ebx
  1007ec:	8b 45 0c             	mov    0xc(%ebp),%eax
  1007ef:	66 89 45 f8          	mov    %ax,-0x8(%ebp)
  1007f3:	8b 45 08             	mov    0x8(%ebp),%eax
  1007f6:	8d 50 04             	lea    0x4(%eax),%edx
  1007f9:	0f b7 45 f8          	movzwl -0x8(%ebp),%eax
  1007fd:	50                   	push   %eax
  1007fe:	52                   	push   %edx
  1007ff:	e8 3a fe ff ff       	call   10063e <_ZN4PortC1Et>
  100804:	83 c4 08             	add    $0x8,%esp
  100807:	8d 93 20 00 00 00    	lea    0x20(%ebx),%edx
  10080d:	8b 45 08             	mov    0x8(%ebp),%eax
  100810:	89 10                	mov    %edx,(%eax)
  100812:	90                   	nop
  100813:	8b 5d fc             	mov    -0x4(%ebp),%ebx
  100816:	c9                   	leave  
  100817:	c3                   	ret    

00100818 <_ZN9Port32BitD1Ev>:
  100818:	55                   	push   %ebp
  100819:	89 e5                	mov    %esp,%ebp
  10081b:	e8 63 fb ff ff       	call   100383 <__x86.get_pc_thunk.ax>
  100820:	05 50 15 00 00       	add    $0x1550,%eax
  100825:	8d 90 20 00 00 00    	lea    0x20(%eax),%edx
  10082b:	8b 45 08             	mov    0x8(%ebp),%eax
  10082e:	89 10                	mov    %edx,(%eax)
  100830:	8b 45 08             	mov    0x8(%ebp),%eax
  100833:	83 c0 04             	add    $0x4,%eax
  100836:	50                   	push   %eax
  100837:	e8 26 fe ff ff       	call   100662 <_ZN4PortD1Ev>
  10083c:	83 c4 04             	add    $0x4,%esp
  10083f:	90                   	nop
  100840:	c9                   	leave  
  100841:	c3                   	ret    

00100842 <_ZN9Port32Bit5WriteEj>:
  100842:	55                   	push   %ebp
  100843:	89 e5                	mov    %esp,%ebp
  100845:	e8 39 fb ff ff       	call   100383 <__x86.get_pc_thunk.ax>
  10084a:	05 26 15 00 00       	add    $0x1526,%eax
  10084f:	8b 45 08             	mov    0x8(%ebp),%eax
  100852:	0f b7 50 04          	movzwl 0x4(%eax),%edx
  100856:	8b 45 0c             	mov    0xc(%ebp),%eax
  100859:	ef                   	out    %eax,(%dx)
  10085a:	90                   	nop
  10085b:	5d                   	pop    %ebp
  10085c:	c3                   	ret    
  10085d:	90                   	nop

0010085e <_ZN9Port32Bit4ReadEv>:
  10085e:	55                   	push   %ebp
  10085f:	89 e5                	mov    %esp,%ebp
  100861:	83 ec 10             	sub    $0x10,%esp
  100864:	e8 1a fb ff ff       	call   100383 <__x86.get_pc_thunk.ax>
  100869:	05 07 15 00 00       	add    $0x1507,%eax
  10086e:	8b 45 08             	mov    0x8(%ebp),%eax
  100871:	0f b7 40 04          	movzwl 0x4(%eax),%eax
  100875:	89 c2                	mov    %eax,%edx
  100877:	ed                   	in     (%dx),%eax
  100878:	89 45 fc             	mov    %eax,-0x4(%ebp)
  10087b:	8b 45 fc             	mov    -0x4(%ebp),%eax
  10087e:	c9                   	leave  
  10087f:	c3                   	ret    

00100880 <_ZN12Port8BitSlowC1Et>:
  100880:	55                   	push   %ebp
  100881:	89 e5                	mov    %esp,%ebp
  100883:	53                   	push   %ebx
  100884:	83 ec 04             	sub    $0x4,%esp
  100887:	e8 fb fa ff ff       	call   100387 <__x86.get_pc_thunk.bx>
  10088c:	81 c3 e4 14 00 00    	add    $0x14e4,%ebx
  100892:	8b 45 0c             	mov    0xc(%ebp),%eax
  100895:	66 89 45 f8          	mov    %ax,-0x8(%ebp)
  100899:	8b 45 08             	mov    0x8(%ebp),%eax
  10089c:	8d 50 04             	lea    0x4(%eax),%edx
  10089f:	0f b7 45 f8          	movzwl -0x8(%ebp),%eax
  1008a3:	50                   	push   %eax
  1008a4:	52                   	push   %edx
  1008a5:	e8 94 fd ff ff       	call   10063e <_ZN4PortC1Et>
  1008aa:	83 c4 08             	add    $0x8,%esp
  1008ad:	8d 93 14 00 00 00    	lea    0x14(%ebx),%edx
  1008b3:	8b 45 08             	mov    0x8(%ebp),%eax
  1008b6:	89 10                	mov    %edx,(%eax)
  1008b8:	90                   	nop
  1008b9:	8b 5d fc             	mov    -0x4(%ebp),%ebx
  1008bc:	c9                   	leave  
  1008bd:	c3                   	ret    

001008be <_ZN12Port8BitSlowD1Ev>:
  1008be:	55                   	push   %ebp
  1008bf:	89 e5                	mov    %esp,%ebp
  1008c1:	e8 bd fa ff ff       	call   100383 <__x86.get_pc_thunk.ax>
  1008c6:	05 aa 14 00 00       	add    $0x14aa,%eax
  1008cb:	8d 90 14 00 00 00    	lea    0x14(%eax),%edx
  1008d1:	8b 45 08             	mov    0x8(%ebp),%eax
  1008d4:	89 10                	mov    %edx,(%eax)
  1008d6:	8b 45 08             	mov    0x8(%ebp),%eax
  1008d9:	83 c0 04             	add    $0x4,%eax
  1008dc:	50                   	push   %eax
  1008dd:	e8 80 fd ff ff       	call   100662 <_ZN4PortD1Ev>
  1008e2:	83 c4 04             	add    $0x4,%esp
  1008e5:	90                   	nop
  1008e6:	c9                   	leave  
  1008e7:	c3                   	ret    

001008e8 <_ZN12Port8BitSlow5WriteEh>:
  1008e8:	55                   	push   %ebp
  1008e9:	89 e5                	mov    %esp,%ebp
  1008eb:	83 ec 04             	sub    $0x4,%esp
  1008ee:	e8 90 fa ff ff       	call   100383 <__x86.get_pc_thunk.ax>
  1008f3:	05 7d 14 00 00       	add    $0x147d,%eax
  1008f8:	8b 45 0c             	mov    0xc(%ebp),%eax
  1008fb:	88 45 fc             	mov    %al,-0x4(%ebp)
  1008fe:	8b 45 08             	mov    0x8(%ebp),%eax
  100901:	0f b7 50 04          	movzwl 0x4(%eax),%edx
  100905:	0f b6 45 fc          	movzbl -0x4(%ebp),%eax
  100909:	ee                   	out    %al,(%dx)
  10090a:	eb 00                	jmp    10090c <_ZN12Port8BitSlow5WriteEh+0x24>
  10090c:	eb 00                	jmp    10090e <_ZN12Port8BitSlow5WriteEh+0x26>
  10090e:	90                   	nop
  10090f:	c9                   	leave  
  100910:	c3                   	ret    

00100911 <_ZN16InterruptManager19HandleException0x00Ev>:
  100911:	c6 05 6c 1d 10 00 00 	movb   $0x0,0x101d6c
  100918:	e9 83 01 00 00       	jmp    100aa0 <int_bottom>

0010091d <_ZN16InterruptManager19HandleException0x01Ev>:
  10091d:	c6 05 6c 1d 10 00 01 	movb   $0x1,0x101d6c
  100924:	e9 77 01 00 00       	jmp    100aa0 <int_bottom>

00100929 <_ZN16InterruptManager19HandleException0x02Ev>:
  100929:	c6 05 6c 1d 10 00 02 	movb   $0x2,0x101d6c
  100930:	e9 6b 01 00 00       	jmp    100aa0 <int_bottom>

00100935 <_ZN16InterruptManager19HandleException0x03Ev>:
  100935:	c6 05 6c 1d 10 00 03 	movb   $0x3,0x101d6c
  10093c:	e9 5f 01 00 00       	jmp    100aa0 <int_bottom>

00100941 <_ZN16InterruptManager19HandleException0x04Ev>:
  100941:	c6 05 6c 1d 10 00 04 	movb   $0x4,0x101d6c
  100948:	e9 53 01 00 00       	jmp    100aa0 <int_bottom>

0010094d <_ZN16InterruptManager19HandleException0x05Ev>:
  10094d:	c6 05 6c 1d 10 00 05 	movb   $0x5,0x101d6c
  100954:	e9 47 01 00 00       	jmp    100aa0 <int_bottom>

00100959 <_ZN16InterruptManager19HandleException0x06Ev>:
  100959:	c6 05 6c 1d 10 00 06 	movb   $0x6,0x101d6c
  100960:	e9 3b 01 00 00       	jmp    100aa0 <int_bottom>

00100965 <_ZN16InterruptManager19HandleException0x07Ev>:
  100965:	c6 05 6c 1d 10 00 07 	movb   $0x7,0x101d6c
  10096c:	e9 2f 01 00 00       	jmp    100aa0 <int_bottom>

00100971 <_ZN16InterruptManager19HandleException0x08Ev>:
  100971:	c6 05 6c 1d 10 00 08 	movb   $0x8,0x101d6c
  100978:	e9 23 01 00 00       	jmp    100aa0 <int_bottom>

0010097d <_ZN16InterruptManager19HandleException0x09Ev>:
  10097d:	c6 05 6c 1d 10 00 09 	movb   $0x9,0x101d6c
  100984:	e9 17 01 00 00       	jmp    100aa0 <int_bottom>

00100989 <_ZN16InterruptManager19HandleException0x0AEv>:
  100989:	c6 05 6c 1d 10 00 0a 	movb   $0xa,0x101d6c
  100990:	e9 0b 01 00 00       	jmp    100aa0 <int_bottom>

00100995 <_ZN16InterruptManager19HandleException0x0BEv>:
  100995:	c6 05 6c 1d 10 00 0b 	movb   $0xb,0x101d6c
  10099c:	e9 ff 00 00 00       	jmp    100aa0 <int_bottom>

001009a1 <_ZN16InterruptManager19HandleException0x0CEv>:
  1009a1:	c6 05 6c 1d 10 00 0c 	movb   $0xc,0x101d6c
  1009a8:	e9 f3 00 00 00       	jmp    100aa0 <int_bottom>

001009ad <_ZN16InterruptManager19HandleException0x0DEv>:
  1009ad:	c6 05 6c 1d 10 00 0d 	movb   $0xd,0x101d6c
  1009b4:	e9 e7 00 00 00       	jmp    100aa0 <int_bottom>

001009b9 <_ZN16InterruptManager19HandleException0x0EEv>:
  1009b9:	c6 05 6c 1d 10 00 0e 	movb   $0xe,0x101d6c
  1009c0:	e9 db 00 00 00       	jmp    100aa0 <int_bottom>

001009c5 <_ZN16InterruptManager19HandleException0x0FEv>:
  1009c5:	c6 05 6c 1d 10 00 0f 	movb   $0xf,0x101d6c
  1009cc:	e9 cf 00 00 00       	jmp    100aa0 <int_bottom>

001009d1 <_ZN16InterruptManager19HandleException0x10Ev>:
  1009d1:	c6 05 6c 1d 10 00 10 	movb   $0x10,0x101d6c
  1009d8:	e9 c3 00 00 00       	jmp    100aa0 <int_bottom>

001009dd <_ZN16InterruptManager19HandleException0x11Ev>:
  1009dd:	c6 05 6c 1d 10 00 11 	movb   $0x11,0x101d6c
  1009e4:	e9 b7 00 00 00       	jmp    100aa0 <int_bottom>

001009e9 <_ZN16InterruptManager19HandleException0x12Ev>:
  1009e9:	c6 05 6c 1d 10 00 12 	movb   $0x12,0x101d6c
  1009f0:	e9 ab 00 00 00       	jmp    100aa0 <int_bottom>

001009f5 <_ZN16InterruptManager19HandleException0x13Ev>:
  1009f5:	c6 05 6c 1d 10 00 13 	movb   $0x13,0x101d6c
  1009fc:	e9 9f 00 00 00       	jmp    100aa0 <int_bottom>

00100a01 <_ZN16InterruptManager26HandleInterruptRequest0x00Ev>:
  100a01:	c6 05 6c 1d 10 00 20 	movb   $0x20,0x101d6c
  100a08:	e9 93 00 00 00       	jmp    100aa0 <int_bottom>

00100a0d <_ZN16InterruptManager26HandleInterruptRequest0x01Ev>:
  100a0d:	c6 05 6c 1d 10 00 21 	movb   $0x21,0x101d6c
  100a14:	e9 87 00 00 00       	jmp    100aa0 <int_bottom>

00100a19 <_ZN16InterruptManager26HandleInterruptRequest0x02Ev>:
  100a19:	c6 05 6c 1d 10 00 22 	movb   $0x22,0x101d6c
  100a20:	eb 7e                	jmp    100aa0 <int_bottom>

00100a22 <_ZN16InterruptManager26HandleInterruptRequest0x03Ev>:
  100a22:	c6 05 6c 1d 10 00 23 	movb   $0x23,0x101d6c
  100a29:	eb 75                	jmp    100aa0 <int_bottom>

00100a2b <_ZN16InterruptManager26HandleInterruptRequest0x04Ev>:
  100a2b:	c6 05 6c 1d 10 00 24 	movb   $0x24,0x101d6c
  100a32:	eb 6c                	jmp    100aa0 <int_bottom>

00100a34 <_ZN16InterruptManager26HandleInterruptRequest0x05Ev>:
  100a34:	c6 05 6c 1d 10 00 25 	movb   $0x25,0x101d6c
  100a3b:	eb 63                	jmp    100aa0 <int_bottom>

00100a3d <_ZN16InterruptManager26HandleInterruptRequest0x06Ev>:
  100a3d:	c6 05 6c 1d 10 00 26 	movb   $0x26,0x101d6c
  100a44:	eb 5a                	jmp    100aa0 <int_bottom>

00100a46 <_ZN16InterruptManager26HandleInterruptRequest0x07Ev>:
  100a46:	c6 05 6c 1d 10 00 27 	movb   $0x27,0x101d6c
  100a4d:	eb 51                	jmp    100aa0 <int_bottom>

00100a4f <_ZN16InterruptManager26HandleInterruptRequest0x08Ev>:
  100a4f:	c6 05 6c 1d 10 00 28 	movb   $0x28,0x101d6c
  100a56:	eb 48                	jmp    100aa0 <int_bottom>

00100a58 <_ZN16InterruptManager26HandleInterruptRequest0x09Ev>:
  100a58:	c6 05 6c 1d 10 00 29 	movb   $0x29,0x101d6c
  100a5f:	eb 3f                	jmp    100aa0 <int_bottom>

00100a61 <_ZN16InterruptManager26HandleInterruptRequest0x0AEv>:
  100a61:	c6 05 6c 1d 10 00 2a 	movb   $0x2a,0x101d6c
  100a68:	eb 36                	jmp    100aa0 <int_bottom>

00100a6a <_ZN16InterruptManager26HandleInterruptRequest0x0BEv>:
  100a6a:	c6 05 6c 1d 10 00 2b 	movb   $0x2b,0x101d6c
  100a71:	eb 2d                	jmp    100aa0 <int_bottom>

00100a73 <_ZN16InterruptManager26HandleInterruptRequest0x0CEv>:
  100a73:	c6 05 6c 1d 10 00 2c 	movb   $0x2c,0x101d6c
  100a7a:	eb 24                	jmp    100aa0 <int_bottom>

00100a7c <_ZN16InterruptManager26HandleInterruptRequest0x0DEv>:
  100a7c:	c6 05 6c 1d 10 00 2d 	movb   $0x2d,0x101d6c
  100a83:	eb 1b                	jmp    100aa0 <int_bottom>

00100a85 <_ZN16InterruptManager26HandleInterruptRequest0x0EEv>:
  100a85:	c6 05 6c 1d 10 00 2e 	movb   $0x2e,0x101d6c
  100a8c:	eb 12                	jmp    100aa0 <int_bottom>

00100a8e <_ZN16InterruptManager26HandleInterruptRequest0x0FEv>:
  100a8e:	c6 05 6c 1d 10 00 2f 	movb   $0x2f,0x101d6c
  100a95:	eb 09                	jmp    100aa0 <int_bottom>

00100a97 <_ZN16InterruptManager26HandleInterruptRequest0x31Ev>:
  100a97:	c6 05 6c 1d 10 00 51 	movb   $0x51,0x101d6c
  100a9e:	eb 00                	jmp    100aa0 <int_bottom>

00100aa0 <int_bottom>:
  100aa0:	60                   	pusha  
  100aa1:	1e                   	push   %ds
  100aa2:	06                   	push   %es
  100aa3:	0f a0                	push   %fs
  100aa5:	0f a8                	push   %gs
  100aa7:	54                   	push   %esp
  100aa8:	ff 35 6c 1d 10 00    	push   0x101d6c
  100aae:	e8 2f 09 00 00       	call   1013e2 <_ZN16InterruptManager15HandleInterruptEhj>
  100ab3:	01 25 06 00 00 00    	add    %esp,0x6
  100ab9:	89 c4                	mov    %eax,%esp
  100abb:	0f a9                	pop    %gs
  100abd:	0f a1                	pop    %fs
  100abf:	07                   	pop    %es
  100ac0:	1f                   	pop    %ds
  100ac1:	61                   	popa   

00100ac2 <_ZN16InterruptManager15InterruptIgnoreEv>:
  100ac2:	cf                   	iret   
  100ac3:	90                   	nop

00100ac4 <_ZN16InterruptHandlerC1EP16InterruptManagerh>:
  100ac4:	55                   	push   %ebp
  100ac5:	89 e5                	mov    %esp,%ebp
  100ac7:	83 ec 04             	sub    $0x4,%esp
  100aca:	e8 b4 f8 ff ff       	call   100383 <__x86.get_pc_thunk.ax>
  100acf:	05 a1 12 00 00       	add    $0x12a1,%eax
  100ad4:	8b 55 10             	mov    0x10(%ebp),%edx
  100ad7:	88 55 fc             	mov    %dl,-0x4(%ebp)
  100ada:	8d 90 50 00 00 00    	lea    0x50(%eax),%edx
  100ae0:	8b 45 08             	mov    0x8(%ebp),%eax
  100ae3:	89 10                	mov    %edx,(%eax)
  100ae5:	8b 45 08             	mov    0x8(%ebp),%eax
  100ae8:	0f b6 55 fc          	movzbl -0x4(%ebp),%edx
  100aec:	88 50 04             	mov    %dl,0x4(%eax)
  100aef:	8b 45 08             	mov    0x8(%ebp),%eax
  100af2:	8b 55 0c             	mov    0xc(%ebp),%edx
  100af5:	89 50 08             	mov    %edx,0x8(%eax)
  100af8:	0f b6 55 fc          	movzbl -0x4(%ebp),%edx
  100afc:	8b 45 0c             	mov    0xc(%ebp),%eax
  100aff:	8b 4d 08             	mov    0x8(%ebp),%ecx
  100b02:	89 0c 90             	mov    %ecx,(%eax,%edx,4)
  100b05:	90                   	nop
  100b06:	c9                   	leave  
  100b07:	c3                   	ret    

00100b08 <_ZN16InterruptHandlerD1Ev>:
  100b08:	55                   	push   %ebp
  100b09:	89 e5                	mov    %esp,%ebp
  100b0b:	e8 73 f8 ff ff       	call   100383 <__x86.get_pc_thunk.ax>
  100b10:	05 60 12 00 00       	add    $0x1260,%eax
  100b15:	8d 90 50 00 00 00    	lea    0x50(%eax),%edx
  100b1b:	8b 45 08             	mov    0x8(%ebp),%eax
  100b1e:	89 10                	mov    %edx,(%eax)
  100b20:	8b 45 08             	mov    0x8(%ebp),%eax
  100b23:	8b 40 08             	mov    0x8(%eax),%eax
  100b26:	8b 55 08             	mov    0x8(%ebp),%edx
  100b29:	0f b6 52 04          	movzbl 0x4(%edx),%edx
  100b2d:	0f b6 d2             	movzbl %dl,%edx
  100b30:	8b 04 90             	mov    (%eax,%edx,4),%eax
  100b33:	39 45 08             	cmp    %eax,0x8(%ebp)
  100b36:	75 17                	jne    100b4f <_ZN16InterruptHandlerD1Ev+0x47>
  100b38:	8b 45 08             	mov    0x8(%ebp),%eax
  100b3b:	8b 40 08             	mov    0x8(%eax),%eax
  100b3e:	8b 55 08             	mov    0x8(%ebp),%edx
  100b41:	0f b6 52 04          	movzbl 0x4(%edx),%edx
  100b45:	0f b6 d2             	movzbl %dl,%edx
  100b48:	c7 04 90 00 00 00 00 	movl   $0x0,(%eax,%edx,4)
  100b4f:	90                   	nop
  100b50:	5d                   	pop    %ebp
  100b51:	c3                   	ret    

00100b52 <_ZN16InterruptHandler15HandleInterruptEj>:
  100b52:	55                   	push   %ebp
  100b53:	89 e5                	mov    %esp,%ebp
  100b55:	e8 29 f8 ff ff       	call   100383 <__x86.get_pc_thunk.ax>
  100b5a:	05 16 12 00 00       	add    $0x1216,%eax
  100b5f:	8b 45 0c             	mov    0xc(%ebp),%eax
  100b62:	5d                   	pop    %ebp
  100b63:	c3                   	ret    

00100b64 <_ZN16InterruptManager32SetInterruptDescriptorTableEntryEhtPFvvEhh>:
  100b64:	55                   	push   %ebp
  100b65:	89 e5                	mov    %esp,%ebp
  100b67:	57                   	push   %edi
  100b68:	56                   	push   %esi
  100b69:	53                   	push   %ebx
  100b6a:	83 ec 20             	sub    $0x20,%esp
  100b6d:	e8 11 f8 ff ff       	call   100383 <__x86.get_pc_thunk.ax>
  100b72:	05 fe 11 00 00       	add    $0x11fe,%eax
  100b77:	8b 75 08             	mov    0x8(%ebp),%esi
  100b7a:	8b 7d 0c             	mov    0xc(%ebp),%edi
  100b7d:	8b 5d 14             	mov    0x14(%ebp),%ebx
  100b80:	8b 4d 18             	mov    0x18(%ebp),%ecx
  100b83:	89 f2                	mov    %esi,%edx
  100b85:	88 55 e0             	mov    %dl,-0x20(%ebp)
  100b88:	89 fa                	mov    %edi,%edx
  100b8a:	66 89 55 dc          	mov    %dx,-0x24(%ebp)
  100b8e:	89 da                	mov    %ebx,%edx
  100b90:	88 55 d8             	mov    %dl,-0x28(%ebp)
  100b93:	89 ca                	mov    %ecx,%edx
  100b95:	88 55 d4             	mov    %dl,-0x2c(%ebp)
  100b98:	8b 4d 10             	mov    0x10(%ebp),%ecx
  100b9b:	0f b6 55 e0          	movzbl -0x20(%ebp),%edx
  100b9f:	66 89 8c d0 90 00 20 	mov    %cx,0x200090(%eax,%edx,8)
  100ba6:	00 
  100ba7:	8b 55 10             	mov    0x10(%ebp),%edx
  100baa:	89 d1                	mov    %edx,%ecx
  100bac:	c1 e9 10             	shr    $0x10,%ecx
  100baf:	0f b6 55 e0          	movzbl -0x20(%ebp),%edx
  100bb3:	66 89 8c d0 96 00 20 	mov    %cx,0x200096(%eax,%edx,8)
  100bba:	00 
  100bbb:	0f b6 55 e0          	movzbl -0x20(%ebp),%edx
  100bbf:	0f b7 4d dc          	movzwl -0x24(%ebp),%ecx
  100bc3:	66 89 8c d0 92 00 20 	mov    %cx,0x200092(%eax,%edx,8)
  100bca:	00 
  100bcb:	c6 45 f3 80          	movb   $0x80,-0xd(%ebp)
  100bcf:	0f b6 55 d8          	movzbl -0x28(%ebp),%edx
  100bd3:	c1 e2 05             	shl    $0x5,%edx
  100bd6:	83 e2 60             	and    $0x60,%edx
  100bd9:	89 d1                	mov    %edx,%ecx
  100bdb:	0a 4d d4             	or     -0x2c(%ebp),%cl
  100bde:	0f b6 55 e0          	movzbl -0x20(%ebp),%edx
  100be2:	83 c9 80             	or     $0xffffff80,%ecx
  100be5:	88 8c d0 95 00 20 00 	mov    %cl,0x200095(%eax,%edx,8)
  100bec:	0f b6 55 e0          	movzbl -0x20(%ebp),%edx
  100bf0:	c6 84 d0 94 00 20 00 	movb   $0x0,0x200094(%eax,%edx,8)
  100bf7:	00 
  100bf8:	90                   	nop
  100bf9:	83 c4 20             	add    $0x20,%esp
  100bfc:	5b                   	pop    %ebx
  100bfd:	5e                   	pop    %esi
  100bfe:	5f                   	pop    %edi
  100bff:	5d                   	pop    %ebp
  100c00:	c3                   	ret    
  100c01:	90                   	nop

00100c02 <_ZN16InterruptManagerC1EtP21GlobalDescriptorTable>:
  100c02:	55                   	push   %ebp
  100c03:	89 e5                	mov    %esp,%ebp
  100c05:	53                   	push   %ebx
  100c06:	83 ec 24             	sub    $0x24,%esp
  100c09:	e8 79 f7 ff ff       	call   100387 <__x86.get_pc_thunk.bx>
  100c0e:	81 c3 62 11 00 00    	add    $0x1162,%ebx
  100c14:	8b 45 0c             	mov    0xc(%ebp),%eax
  100c17:	66 89 45 e4          	mov    %ax,-0x1c(%ebp)
  100c1b:	8b 45 08             	mov    0x8(%ebp),%eax
  100c1e:	05 04 04 00 00       	add    $0x404,%eax
  100c23:	83 ec 08             	sub    $0x8,%esp
  100c26:	6a 20                	push   $0x20
  100c28:	50                   	push   %eax
  100c29:	e8 52 fc ff ff       	call   100880 <_ZN12Port8BitSlowC1Et>
  100c2e:	83 c4 10             	add    $0x10,%esp
  100c31:	8b 45 08             	mov    0x8(%ebp),%eax
  100c34:	05 0c 04 00 00       	add    $0x40c,%eax
  100c39:	83 ec 08             	sub    $0x8,%esp
  100c3c:	6a 21                	push   $0x21
  100c3e:	50                   	push   %eax
  100c3f:	e8 3c fc ff ff       	call   100880 <_ZN12Port8BitSlowC1Et>
  100c44:	83 c4 10             	add    $0x10,%esp
  100c47:	8b 45 08             	mov    0x8(%ebp),%eax
  100c4a:	05 14 04 00 00       	add    $0x414,%eax
  100c4f:	83 ec 08             	sub    $0x8,%esp
  100c52:	68 a0 00 00 00       	push   $0xa0
  100c57:	50                   	push   %eax
  100c58:	e8 23 fc ff ff       	call   100880 <_ZN12Port8BitSlowC1Et>
  100c5d:	83 c4 10             	add    $0x10,%esp
  100c60:	8b 45 08             	mov    0x8(%ebp),%eax
  100c63:	05 1c 04 00 00       	add    $0x41c,%eax
  100c68:	83 ec 08             	sub    $0x8,%esp
  100c6b:	68 a1 00 00 00       	push   $0xa1
  100c70:	50                   	push   %eax
  100c71:	e8 0a fc ff ff       	call   100880 <_ZN12Port8BitSlowC1Et>
  100c76:	83 c4 10             	add    $0x10,%esp
  100c79:	8b 45 08             	mov    0x8(%ebp),%eax
  100c7c:	0f b7 55 e4          	movzwl -0x1c(%ebp),%edx
  100c80:	66 89 90 00 04 00 00 	mov    %dx,0x400(%eax)
  100c87:	83 ec 0c             	sub    $0xc,%esp
  100c8a:	ff 75 10             	push   0x10(%ebp)
  100c8d:	e8 a4 f7 ff ff       	call   100436 <_ZN21GlobalDescriptorTable19CodeSegmentSelectorEv>
  100c92:	83 c4 10             	add    $0x10,%esp
  100c95:	0f b7 c0             	movzwl %ax,%eax
  100c98:	89 45 f0             	mov    %eax,-0x10(%ebp)
  100c9b:	c6 45 ef 0e          	movb   $0xe,-0x11(%ebp)
  100c9f:	c6 45 f7 ff          	movb   $0xff,-0x9(%ebp)
  100ca3:	eb 34                	jmp    100cd9 <_ZN16InterruptManagerC1EtP21GlobalDescriptorTable+0xd7>
  100ca5:	8b 45 f0             	mov    -0x10(%ebp),%eax
  100ca8:	0f b7 d0             	movzwl %ax,%edx
  100cab:	0f b6 45 f7          	movzbl -0x9(%ebp),%eax
  100caf:	83 ec 0c             	sub    $0xc,%esp
  100cb2:	6a 0e                	push   $0xe
  100cb4:	6a 00                	push   $0x0
  100cb6:	c7 c1 c2 0a 10 00    	mov    $0x100ac2,%ecx
  100cbc:	51                   	push   %ecx
  100cbd:	52                   	push   %edx
  100cbe:	50                   	push   %eax
  100cbf:	e8 a0 fe ff ff       	call   100b64 <_ZN16InterruptManager32SetInterruptDescriptorTableEntryEhtPFvvEhh>
  100cc4:	83 c4 20             	add    $0x20,%esp
  100cc7:	0f b6 55 f7          	movzbl -0x9(%ebp),%edx
  100ccb:	8b 45 08             	mov    0x8(%ebp),%eax
  100cce:	c7 04 90 00 00 00 00 	movl   $0x0,(%eax,%edx,4)
  100cd5:	80 6d f7 01          	subb   $0x1,-0x9(%ebp)
  100cd9:	80 7d f7 00          	cmpb   $0x0,-0x9(%ebp)
  100cdd:	75 c6                	jne    100ca5 <_ZN16InterruptManagerC1EtP21GlobalDescriptorTable+0xa3>
  100cdf:	8b 45 f0             	mov    -0x10(%ebp),%eax
  100ce2:	0f b7 c0             	movzwl %ax,%eax
  100ce5:	83 ec 0c             	sub    $0xc,%esp
  100ce8:	6a 0e                	push   $0xe
  100cea:	6a 00                	push   $0x0
  100cec:	c7 c2 c2 0a 10 00    	mov    $0x100ac2,%edx
  100cf2:	52                   	push   %edx
  100cf3:	50                   	push   %eax
  100cf4:	6a 00                	push   $0x0
  100cf6:	e8 69 fe ff ff       	call   100b64 <_ZN16InterruptManager32SetInterruptDescriptorTableEntryEhtPFvvEhh>
  100cfb:	83 c4 20             	add    $0x20,%esp
  100cfe:	8b 45 f0             	mov    -0x10(%ebp),%eax
  100d01:	0f b7 c0             	movzwl %ax,%eax
  100d04:	83 ec 0c             	sub    $0xc,%esp
  100d07:	6a 0e                	push   $0xe
  100d09:	6a 00                	push   $0x0
  100d0b:	c7 c2 11 09 10 00    	mov    $0x100911,%edx
  100d11:	52                   	push   %edx
  100d12:	50                   	push   %eax
  100d13:	6a 00                	push   $0x0
  100d15:	e8 4a fe ff ff       	call   100b64 <_ZN16InterruptManager32SetInterruptDescriptorTableEntryEhtPFvvEhh>
  100d1a:	83 c4 20             	add    $0x20,%esp
  100d1d:	8b 45 f0             	mov    -0x10(%ebp),%eax
  100d20:	0f b7 c0             	movzwl %ax,%eax
  100d23:	83 ec 0c             	sub    $0xc,%esp
  100d26:	6a 0e                	push   $0xe
  100d28:	6a 00                	push   $0x0
  100d2a:	c7 c2 1d 09 10 00    	mov    $0x10091d,%edx
  100d30:	52                   	push   %edx
  100d31:	50                   	push   %eax
  100d32:	6a 01                	push   $0x1
  100d34:	e8 2b fe ff ff       	call   100b64 <_ZN16InterruptManager32SetInterruptDescriptorTableEntryEhtPFvvEhh>
  100d39:	83 c4 20             	add    $0x20,%esp
  100d3c:	8b 45 f0             	mov    -0x10(%ebp),%eax
  100d3f:	0f b7 c0             	movzwl %ax,%eax
  100d42:	83 ec 0c             	sub    $0xc,%esp
  100d45:	6a 0e                	push   $0xe
  100d47:	6a 00                	push   $0x0
  100d49:	c7 c2 29 09 10 00    	mov    $0x100929,%edx
  100d4f:	52                   	push   %edx
  100d50:	50                   	push   %eax
  100d51:	6a 02                	push   $0x2
  100d53:	e8 0c fe ff ff       	call   100b64 <_ZN16InterruptManager32SetInterruptDescriptorTableEntryEhtPFvvEhh>
  100d58:	83 c4 20             	add    $0x20,%esp
  100d5b:	8b 45 f0             	mov    -0x10(%ebp),%eax
  100d5e:	0f b7 c0             	movzwl %ax,%eax
  100d61:	83 ec 0c             	sub    $0xc,%esp
  100d64:	6a 0e                	push   $0xe
  100d66:	6a 00                	push   $0x0
  100d68:	c7 c2 35 09 10 00    	mov    $0x100935,%edx
  100d6e:	52                   	push   %edx
  100d6f:	50                   	push   %eax
  100d70:	6a 03                	push   $0x3
  100d72:	e8 ed fd ff ff       	call   100b64 <_ZN16InterruptManager32SetInterruptDescriptorTableEntryEhtPFvvEhh>
  100d77:	83 c4 20             	add    $0x20,%esp
  100d7a:	8b 45 f0             	mov    -0x10(%ebp),%eax
  100d7d:	0f b7 c0             	movzwl %ax,%eax
  100d80:	83 ec 0c             	sub    $0xc,%esp
  100d83:	6a 0e                	push   $0xe
  100d85:	6a 00                	push   $0x0
  100d87:	c7 c2 41 09 10 00    	mov    $0x100941,%edx
  100d8d:	52                   	push   %edx
  100d8e:	50                   	push   %eax
  100d8f:	6a 04                	push   $0x4
  100d91:	e8 ce fd ff ff       	call   100b64 <_ZN16InterruptManager32SetInterruptDescriptorTableEntryEhtPFvvEhh>
  100d96:	83 c4 20             	add    $0x20,%esp
  100d99:	8b 45 f0             	mov    -0x10(%ebp),%eax
  100d9c:	0f b7 c0             	movzwl %ax,%eax
  100d9f:	83 ec 0c             	sub    $0xc,%esp
  100da2:	6a 0e                	push   $0xe
  100da4:	6a 00                	push   $0x0
  100da6:	c7 c2 4d 09 10 00    	mov    $0x10094d,%edx
  100dac:	52                   	push   %edx
  100dad:	50                   	push   %eax
  100dae:	6a 05                	push   $0x5
  100db0:	e8 af fd ff ff       	call   100b64 <_ZN16InterruptManager32SetInterruptDescriptorTableEntryEhtPFvvEhh>
  100db5:	83 c4 20             	add    $0x20,%esp
  100db8:	8b 45 f0             	mov    -0x10(%ebp),%eax
  100dbb:	0f b7 c0             	movzwl %ax,%eax
  100dbe:	83 ec 0c             	sub    $0xc,%esp
  100dc1:	6a 0e                	push   $0xe
  100dc3:	6a 00                	push   $0x0
  100dc5:	c7 c2 59 09 10 00    	mov    $0x100959,%edx
  100dcb:	52                   	push   %edx
  100dcc:	50                   	push   %eax
  100dcd:	6a 06                	push   $0x6
  100dcf:	e8 90 fd ff ff       	call   100b64 <_ZN16InterruptManager32SetInterruptDescriptorTableEntryEhtPFvvEhh>
  100dd4:	83 c4 20             	add    $0x20,%esp
  100dd7:	8b 45 f0             	mov    -0x10(%ebp),%eax
  100dda:	0f b7 c0             	movzwl %ax,%eax
  100ddd:	83 ec 0c             	sub    $0xc,%esp
  100de0:	6a 0e                	push   $0xe
  100de2:	6a 00                	push   $0x0
  100de4:	c7 c2 65 09 10 00    	mov    $0x100965,%edx
  100dea:	52                   	push   %edx
  100deb:	50                   	push   %eax
  100dec:	6a 07                	push   $0x7
  100dee:	e8 71 fd ff ff       	call   100b64 <_ZN16InterruptManager32SetInterruptDescriptorTableEntryEhtPFvvEhh>
  100df3:	83 c4 20             	add    $0x20,%esp
  100df6:	8b 45 f0             	mov    -0x10(%ebp),%eax
  100df9:	0f b7 c0             	movzwl %ax,%eax
  100dfc:	83 ec 0c             	sub    $0xc,%esp
  100dff:	6a 0e                	push   $0xe
  100e01:	6a 00                	push   $0x0
  100e03:	c7 c2 71 09 10 00    	mov    $0x100971,%edx
  100e09:	52                   	push   %edx
  100e0a:	50                   	push   %eax
  100e0b:	6a 08                	push   $0x8
  100e0d:	e8 52 fd ff ff       	call   100b64 <_ZN16InterruptManager32SetInterruptDescriptorTableEntryEhtPFvvEhh>
  100e12:	83 c4 20             	add    $0x20,%esp
  100e15:	8b 45 f0             	mov    -0x10(%ebp),%eax
  100e18:	0f b7 c0             	movzwl %ax,%eax
  100e1b:	83 ec 0c             	sub    $0xc,%esp
  100e1e:	6a 0e                	push   $0xe
  100e20:	6a 00                	push   $0x0
  100e22:	c7 c2 7d 09 10 00    	mov    $0x10097d,%edx
  100e28:	52                   	push   %edx
  100e29:	50                   	push   %eax
  100e2a:	6a 09                	push   $0x9
  100e2c:	e8 33 fd ff ff       	call   100b64 <_ZN16InterruptManager32SetInterruptDescriptorTableEntryEhtPFvvEhh>
  100e31:	83 c4 20             	add    $0x20,%esp
  100e34:	8b 45 f0             	mov    -0x10(%ebp),%eax
  100e37:	0f b7 c0             	movzwl %ax,%eax
  100e3a:	83 ec 0c             	sub    $0xc,%esp
  100e3d:	6a 0e                	push   $0xe
  100e3f:	6a 00                	push   $0x0
  100e41:	c7 c2 89 09 10 00    	mov    $0x100989,%edx
  100e47:	52                   	push   %edx
  100e48:	50                   	push   %eax
  100e49:	6a 0a                	push   $0xa
  100e4b:	e8 14 fd ff ff       	call   100b64 <_ZN16InterruptManager32SetInterruptDescriptorTableEntryEhtPFvvEhh>
  100e50:	83 c4 20             	add    $0x20,%esp
  100e53:	8b 45 f0             	mov    -0x10(%ebp),%eax
  100e56:	0f b7 c0             	movzwl %ax,%eax
  100e59:	83 ec 0c             	sub    $0xc,%esp
  100e5c:	6a 0e                	push   $0xe
  100e5e:	6a 00                	push   $0x0
  100e60:	c7 c2 95 09 10 00    	mov    $0x100995,%edx
  100e66:	52                   	push   %edx
  100e67:	50                   	push   %eax
  100e68:	6a 0b                	push   $0xb
  100e6a:	e8 f5 fc ff ff       	call   100b64 <_ZN16InterruptManager32SetInterruptDescriptorTableEntryEhtPFvvEhh>
  100e6f:	83 c4 20             	add    $0x20,%esp
  100e72:	8b 45 f0             	mov    -0x10(%ebp),%eax
  100e75:	0f b7 c0             	movzwl %ax,%eax
  100e78:	83 ec 0c             	sub    $0xc,%esp
  100e7b:	6a 0e                	push   $0xe
  100e7d:	6a 00                	push   $0x0
  100e7f:	c7 c2 a1 09 10 00    	mov    $0x1009a1,%edx
  100e85:	52                   	push   %edx
  100e86:	50                   	push   %eax
  100e87:	6a 0c                	push   $0xc
  100e89:	e8 d6 fc ff ff       	call   100b64 <_ZN16InterruptManager32SetInterruptDescriptorTableEntryEhtPFvvEhh>
  100e8e:	83 c4 20             	add    $0x20,%esp
  100e91:	8b 45 f0             	mov    -0x10(%ebp),%eax
  100e94:	0f b7 c0             	movzwl %ax,%eax
  100e97:	83 ec 0c             	sub    $0xc,%esp
  100e9a:	6a 0e                	push   $0xe
  100e9c:	6a 00                	push   $0x0
  100e9e:	c7 c2 ad 09 10 00    	mov    $0x1009ad,%edx
  100ea4:	52                   	push   %edx
  100ea5:	50                   	push   %eax
  100ea6:	6a 0d                	push   $0xd
  100ea8:	e8 b7 fc ff ff       	call   100b64 <_ZN16InterruptManager32SetInterruptDescriptorTableEntryEhtPFvvEhh>
  100ead:	83 c4 20             	add    $0x20,%esp
  100eb0:	8b 45 f0             	mov    -0x10(%ebp),%eax
  100eb3:	0f b7 c0             	movzwl %ax,%eax
  100eb6:	83 ec 0c             	sub    $0xc,%esp
  100eb9:	6a 0e                	push   $0xe
  100ebb:	6a 00                	push   $0x0
  100ebd:	c7 c2 b9 09 10 00    	mov    $0x1009b9,%edx
  100ec3:	52                   	push   %edx
  100ec4:	50                   	push   %eax
  100ec5:	6a 0e                	push   $0xe
  100ec7:	e8 98 fc ff ff       	call   100b64 <_ZN16InterruptManager32SetInterruptDescriptorTableEntryEhtPFvvEhh>
  100ecc:	83 c4 20             	add    $0x20,%esp
  100ecf:	8b 45 f0             	mov    -0x10(%ebp),%eax
  100ed2:	0f b7 c0             	movzwl %ax,%eax
  100ed5:	83 ec 0c             	sub    $0xc,%esp
  100ed8:	6a 0e                	push   $0xe
  100eda:	6a 00                	push   $0x0
  100edc:	c7 c2 c5 09 10 00    	mov    $0x1009c5,%edx
  100ee2:	52                   	push   %edx
  100ee3:	50                   	push   %eax
  100ee4:	6a 0f                	push   $0xf
  100ee6:	e8 79 fc ff ff       	call   100b64 <_ZN16InterruptManager32SetInterruptDescriptorTableEntryEhtPFvvEhh>
  100eeb:	83 c4 20             	add    $0x20,%esp
  100eee:	8b 45 f0             	mov    -0x10(%ebp),%eax
  100ef1:	0f b7 c0             	movzwl %ax,%eax
  100ef4:	83 ec 0c             	sub    $0xc,%esp
  100ef7:	6a 0e                	push   $0xe
  100ef9:	6a 00                	push   $0x0
  100efb:	c7 c2 d1 09 10 00    	mov    $0x1009d1,%edx
  100f01:	52                   	push   %edx
  100f02:	50                   	push   %eax
  100f03:	6a 10                	push   $0x10
  100f05:	e8 5a fc ff ff       	call   100b64 <_ZN16InterruptManager32SetInterruptDescriptorTableEntryEhtPFvvEhh>
  100f0a:	83 c4 20             	add    $0x20,%esp
  100f0d:	8b 45 f0             	mov    -0x10(%ebp),%eax
  100f10:	0f b7 c0             	movzwl %ax,%eax
  100f13:	83 ec 0c             	sub    $0xc,%esp
  100f16:	6a 0e                	push   $0xe
  100f18:	6a 00                	push   $0x0
  100f1a:	c7 c2 dd 09 10 00    	mov    $0x1009dd,%edx
  100f20:	52                   	push   %edx
  100f21:	50                   	push   %eax
  100f22:	6a 11                	push   $0x11
  100f24:	e8 3b fc ff ff       	call   100b64 <_ZN16InterruptManager32SetInterruptDescriptorTableEntryEhtPFvvEhh>
  100f29:	83 c4 20             	add    $0x20,%esp
  100f2c:	8b 45 f0             	mov    -0x10(%ebp),%eax
  100f2f:	0f b7 c0             	movzwl %ax,%eax
  100f32:	83 ec 0c             	sub    $0xc,%esp
  100f35:	6a 0e                	push   $0xe
  100f37:	6a 00                	push   $0x0
  100f39:	c7 c2 e9 09 10 00    	mov    $0x1009e9,%edx
  100f3f:	52                   	push   %edx
  100f40:	50                   	push   %eax
  100f41:	6a 12                	push   $0x12
  100f43:	e8 1c fc ff ff       	call   100b64 <_ZN16InterruptManager32SetInterruptDescriptorTableEntryEhtPFvvEhh>
  100f48:	83 c4 20             	add    $0x20,%esp
  100f4b:	8b 45 f0             	mov    -0x10(%ebp),%eax
  100f4e:	0f b7 c0             	movzwl %ax,%eax
  100f51:	83 ec 0c             	sub    $0xc,%esp
  100f54:	6a 0e                	push   $0xe
  100f56:	6a 00                	push   $0x0
  100f58:	c7 c2 f5 09 10 00    	mov    $0x1009f5,%edx
  100f5e:	52                   	push   %edx
  100f5f:	50                   	push   %eax
  100f60:	6a 13                	push   $0x13
  100f62:	e8 fd fb ff ff       	call   100b64 <_ZN16InterruptManager32SetInterruptDescriptorTableEntryEhtPFvvEhh>
  100f67:	83 c4 20             	add    $0x20,%esp
  100f6a:	8b 45 f0             	mov    -0x10(%ebp),%eax
  100f6d:	0f b7 d0             	movzwl %ax,%edx
  100f70:	0f b7 45 e4          	movzwl -0x1c(%ebp),%eax
  100f74:	0f b6 c0             	movzbl %al,%eax
  100f77:	83 ec 0c             	sub    $0xc,%esp
  100f7a:	6a 0e                	push   $0xe
  100f7c:	6a 00                	push   $0x0
  100f7e:	c7 c1 01 0a 10 00    	mov    $0x100a01,%ecx
  100f84:	51                   	push   %ecx
  100f85:	52                   	push   %edx
  100f86:	50                   	push   %eax
  100f87:	e8 d8 fb ff ff       	call   100b64 <_ZN16InterruptManager32SetInterruptDescriptorTableEntryEhtPFvvEhh>
  100f8c:	83 c4 20             	add    $0x20,%esp
  100f8f:	8b 45 f0             	mov    -0x10(%ebp),%eax
  100f92:	0f b7 d0             	movzwl %ax,%edx
  100f95:	0f b7 45 e4          	movzwl -0x1c(%ebp),%eax
  100f99:	83 c0 01             	add    $0x1,%eax
  100f9c:	0f b6 c0             	movzbl %al,%eax
  100f9f:	83 ec 0c             	sub    $0xc,%esp
  100fa2:	6a 0e                	push   $0xe
  100fa4:	6a 00                	push   $0x0
  100fa6:	c7 c1 0d 0a 10 00    	mov    $0x100a0d,%ecx
  100fac:	51                   	push   %ecx
  100fad:	52                   	push   %edx
  100fae:	50                   	push   %eax
  100faf:	e8 b0 fb ff ff       	call   100b64 <_ZN16InterruptManager32SetInterruptDescriptorTableEntryEhtPFvvEhh>
  100fb4:	83 c4 20             	add    $0x20,%esp
  100fb7:	8b 45 f0             	mov    -0x10(%ebp),%eax
  100fba:	0f b7 d0             	movzwl %ax,%edx
  100fbd:	0f b7 45 e4          	movzwl -0x1c(%ebp),%eax
  100fc1:	83 c0 02             	add    $0x2,%eax
  100fc4:	0f b6 c0             	movzbl %al,%eax
  100fc7:	83 ec 0c             	sub    $0xc,%esp
  100fca:	6a 0e                	push   $0xe
  100fcc:	6a 00                	push   $0x0
  100fce:	c7 c1 19 0a 10 00    	mov    $0x100a19,%ecx
  100fd4:	51                   	push   %ecx
  100fd5:	52                   	push   %edx
  100fd6:	50                   	push   %eax
  100fd7:	e8 88 fb ff ff       	call   100b64 <_ZN16InterruptManager32SetInterruptDescriptorTableEntryEhtPFvvEhh>
  100fdc:	83 c4 20             	add    $0x20,%esp
  100fdf:	8b 45 f0             	mov    -0x10(%ebp),%eax
  100fe2:	0f b7 d0             	movzwl %ax,%edx
  100fe5:	0f b7 45 e4          	movzwl -0x1c(%ebp),%eax
  100fe9:	83 c0 03             	add    $0x3,%eax
  100fec:	0f b6 c0             	movzbl %al,%eax
  100fef:	83 ec 0c             	sub    $0xc,%esp
  100ff2:	6a 0e                	push   $0xe
  100ff4:	6a 00                	push   $0x0
  100ff6:	c7 c1 22 0a 10 00    	mov    $0x100a22,%ecx
  100ffc:	51                   	push   %ecx
  100ffd:	52                   	push   %edx
  100ffe:	50                   	push   %eax
  100fff:	e8 60 fb ff ff       	call   100b64 <_ZN16InterruptManager32SetInterruptDescriptorTableEntryEhtPFvvEhh>
  101004:	83 c4 20             	add    $0x20,%esp
  101007:	8b 45 f0             	mov    -0x10(%ebp),%eax
  10100a:	0f b7 d0             	movzwl %ax,%edx
  10100d:	0f b7 45 e4          	movzwl -0x1c(%ebp),%eax
  101011:	83 c0 04             	add    $0x4,%eax
  101014:	0f b6 c0             	movzbl %al,%eax
  101017:	83 ec 0c             	sub    $0xc,%esp
  10101a:	6a 0e                	push   $0xe
  10101c:	6a 00                	push   $0x0
  10101e:	c7 c1 2b 0a 10 00    	mov    $0x100a2b,%ecx
  101024:	51                   	push   %ecx
  101025:	52                   	push   %edx
  101026:	50                   	push   %eax
  101027:	e8 38 fb ff ff       	call   100b64 <_ZN16InterruptManager32SetInterruptDescriptorTableEntryEhtPFvvEhh>
  10102c:	83 c4 20             	add    $0x20,%esp
  10102f:	8b 45 f0             	mov    -0x10(%ebp),%eax
  101032:	0f b7 d0             	movzwl %ax,%edx
  101035:	0f b7 45 e4          	movzwl -0x1c(%ebp),%eax
  101039:	83 c0 05             	add    $0x5,%eax
  10103c:	0f b6 c0             	movzbl %al,%eax
  10103f:	83 ec 0c             	sub    $0xc,%esp
  101042:	6a 0e                	push   $0xe
  101044:	6a 00                	push   $0x0
  101046:	c7 c1 34 0a 10 00    	mov    $0x100a34,%ecx
  10104c:	51                   	push   %ecx
  10104d:	52                   	push   %edx
  10104e:	50                   	push   %eax
  10104f:	e8 10 fb ff ff       	call   100b64 <_ZN16InterruptManager32SetInterruptDescriptorTableEntryEhtPFvvEhh>
  101054:	83 c4 20             	add    $0x20,%esp
  101057:	8b 45 f0             	mov    -0x10(%ebp),%eax
  10105a:	0f b7 d0             	movzwl %ax,%edx
  10105d:	0f b7 45 e4          	movzwl -0x1c(%ebp),%eax
  101061:	83 c0 06             	add    $0x6,%eax
  101064:	0f b6 c0             	movzbl %al,%eax
  101067:	83 ec 0c             	sub    $0xc,%esp
  10106a:	6a 0e                	push   $0xe
  10106c:	6a 00                	push   $0x0
  10106e:	c7 c1 3d 0a 10 00    	mov    $0x100a3d,%ecx
  101074:	51                   	push   %ecx
  101075:	52                   	push   %edx
  101076:	50                   	push   %eax
  101077:	e8 e8 fa ff ff       	call   100b64 <_ZN16InterruptManager32SetInterruptDescriptorTableEntryEhtPFvvEhh>
  10107c:	83 c4 20             	add    $0x20,%esp
  10107f:	8b 45 f0             	mov    -0x10(%ebp),%eax
  101082:	0f b7 d0             	movzwl %ax,%edx
  101085:	0f b7 45 e4          	movzwl -0x1c(%ebp),%eax
  101089:	83 c0 07             	add    $0x7,%eax
  10108c:	0f b6 c0             	movzbl %al,%eax
  10108f:	83 ec 0c             	sub    $0xc,%esp
  101092:	6a 0e                	push   $0xe
  101094:	6a 00                	push   $0x0
  101096:	c7 c1 46 0a 10 00    	mov    $0x100a46,%ecx
  10109c:	51                   	push   %ecx
  10109d:	52                   	push   %edx
  10109e:	50                   	push   %eax
  10109f:	e8 c0 fa ff ff       	call   100b64 <_ZN16InterruptManager32SetInterruptDescriptorTableEntryEhtPFvvEhh>
  1010a4:	83 c4 20             	add    $0x20,%esp
  1010a7:	8b 45 f0             	mov    -0x10(%ebp),%eax
  1010aa:	0f b7 d0             	movzwl %ax,%edx
  1010ad:	0f b7 45 e4          	movzwl -0x1c(%ebp),%eax
  1010b1:	83 c0 08             	add    $0x8,%eax
  1010b4:	0f b6 c0             	movzbl %al,%eax
  1010b7:	83 ec 0c             	sub    $0xc,%esp
  1010ba:	6a 0e                	push   $0xe
  1010bc:	6a 00                	push   $0x0
  1010be:	c7 c1 4f 0a 10 00    	mov    $0x100a4f,%ecx
  1010c4:	51                   	push   %ecx
  1010c5:	52                   	push   %edx
  1010c6:	50                   	push   %eax
  1010c7:	e8 98 fa ff ff       	call   100b64 <_ZN16InterruptManager32SetInterruptDescriptorTableEntryEhtPFvvEhh>
  1010cc:	83 c4 20             	add    $0x20,%esp
  1010cf:	8b 45 f0             	mov    -0x10(%ebp),%eax
  1010d2:	0f b7 d0             	movzwl %ax,%edx
  1010d5:	0f b7 45 e4          	movzwl -0x1c(%ebp),%eax
  1010d9:	83 c0 09             	add    $0x9,%eax
  1010dc:	0f b6 c0             	movzbl %al,%eax
  1010df:	83 ec 0c             	sub    $0xc,%esp
  1010e2:	6a 0e                	push   $0xe
  1010e4:	6a 00                	push   $0x0
  1010e6:	c7 c1 58 0a 10 00    	mov    $0x100a58,%ecx
  1010ec:	51                   	push   %ecx
  1010ed:	52                   	push   %edx
  1010ee:	50                   	push   %eax
  1010ef:	e8 70 fa ff ff       	call   100b64 <_ZN16InterruptManager32SetInterruptDescriptorTableEntryEhtPFvvEhh>
  1010f4:	83 c4 20             	add    $0x20,%esp
  1010f7:	8b 45 f0             	mov    -0x10(%ebp),%eax
  1010fa:	0f b7 d0             	movzwl %ax,%edx
  1010fd:	0f b7 45 e4          	movzwl -0x1c(%ebp),%eax
  101101:	83 c0 0a             	add    $0xa,%eax
  101104:	0f b6 c0             	movzbl %al,%eax
  101107:	83 ec 0c             	sub    $0xc,%esp
  10110a:	6a 0e                	push   $0xe
  10110c:	6a 00                	push   $0x0
  10110e:	c7 c1 61 0a 10 00    	mov    $0x100a61,%ecx
  101114:	51                   	push   %ecx
  101115:	52                   	push   %edx
  101116:	50                   	push   %eax
  101117:	e8 48 fa ff ff       	call   100b64 <_ZN16InterruptManager32SetInterruptDescriptorTableEntryEhtPFvvEhh>
  10111c:	83 c4 20             	add    $0x20,%esp
  10111f:	8b 45 f0             	mov    -0x10(%ebp),%eax
  101122:	0f b7 d0             	movzwl %ax,%edx
  101125:	0f b7 45 e4          	movzwl -0x1c(%ebp),%eax
  101129:	83 c0 0b             	add    $0xb,%eax
  10112c:	0f b6 c0             	movzbl %al,%eax
  10112f:	83 ec 0c             	sub    $0xc,%esp
  101132:	6a 0e                	push   $0xe
  101134:	6a 00                	push   $0x0
  101136:	c7 c1 6a 0a 10 00    	mov    $0x100a6a,%ecx
  10113c:	51                   	push   %ecx
  10113d:	52                   	push   %edx
  10113e:	50                   	push   %eax
  10113f:	e8 20 fa ff ff       	call   100b64 <_ZN16InterruptManager32SetInterruptDescriptorTableEntryEhtPFvvEhh>
  101144:	83 c4 20             	add    $0x20,%esp
  101147:	8b 45 f0             	mov    -0x10(%ebp),%eax
  10114a:	0f b7 d0             	movzwl %ax,%edx
  10114d:	0f b7 45 e4          	movzwl -0x1c(%ebp),%eax
  101151:	83 c0 0c             	add    $0xc,%eax
  101154:	0f b6 c0             	movzbl %al,%eax
  101157:	83 ec 0c             	sub    $0xc,%esp
  10115a:	6a 0e                	push   $0xe
  10115c:	6a 00                	push   $0x0
  10115e:	c7 c1 73 0a 10 00    	mov    $0x100a73,%ecx
  101164:	51                   	push   %ecx
  101165:	52                   	push   %edx
  101166:	50                   	push   %eax
  101167:	e8 f8 f9 ff ff       	call   100b64 <_ZN16InterruptManager32SetInterruptDescriptorTableEntryEhtPFvvEhh>
  10116c:	83 c4 20             	add    $0x20,%esp
  10116f:	8b 45 f0             	mov    -0x10(%ebp),%eax
  101172:	0f b7 d0             	movzwl %ax,%edx
  101175:	0f b7 45 e4          	movzwl -0x1c(%ebp),%eax
  101179:	83 c0 0d             	add    $0xd,%eax
  10117c:	0f b6 c0             	movzbl %al,%eax
  10117f:	83 ec 0c             	sub    $0xc,%esp
  101182:	6a 0e                	push   $0xe
  101184:	6a 00                	push   $0x0
  101186:	c7 c1 7c 0a 10 00    	mov    $0x100a7c,%ecx
  10118c:	51                   	push   %ecx
  10118d:	52                   	push   %edx
  10118e:	50                   	push   %eax
  10118f:	e8 d0 f9 ff ff       	call   100b64 <_ZN16InterruptManager32SetInterruptDescriptorTableEntryEhtPFvvEhh>
  101194:	83 c4 20             	add    $0x20,%esp
  101197:	8b 45 f0             	mov    -0x10(%ebp),%eax
  10119a:	0f b7 d0             	movzwl %ax,%edx
  10119d:	0f b7 45 e4          	movzwl -0x1c(%ebp),%eax
  1011a1:	83 c0 0e             	add    $0xe,%eax
  1011a4:	0f b6 c0             	movzbl %al,%eax
  1011a7:	83 ec 0c             	sub    $0xc,%esp
  1011aa:	6a 0e                	push   $0xe
  1011ac:	6a 00                	push   $0x0
  1011ae:	c7 c1 85 0a 10 00    	mov    $0x100a85,%ecx
  1011b4:	51                   	push   %ecx
  1011b5:	52                   	push   %edx
  1011b6:	50                   	push   %eax
  1011b7:	e8 a8 f9 ff ff       	call   100b64 <_ZN16InterruptManager32SetInterruptDescriptorTableEntryEhtPFvvEhh>
  1011bc:	83 c4 20             	add    $0x20,%esp
  1011bf:	8b 45 f0             	mov    -0x10(%ebp),%eax
  1011c2:	0f b7 d0             	movzwl %ax,%edx
  1011c5:	0f b7 45 e4          	movzwl -0x1c(%ebp),%eax
  1011c9:	83 c0 0f             	add    $0xf,%eax
  1011cc:	0f b6 c0             	movzbl %al,%eax
  1011cf:	83 ec 0c             	sub    $0xc,%esp
  1011d2:	6a 0e                	push   $0xe
  1011d4:	6a 00                	push   $0x0
  1011d6:	c7 c1 8e 0a 10 00    	mov    $0x100a8e,%ecx
  1011dc:	51                   	push   %ecx
  1011dd:	52                   	push   %edx
  1011de:	50                   	push   %eax
  1011df:	e8 80 f9 ff ff       	call   100b64 <_ZN16InterruptManager32SetInterruptDescriptorTableEntryEhtPFvvEhh>
  1011e4:	83 c4 20             	add    $0x20,%esp
  1011e7:	8b 45 08             	mov    0x8(%ebp),%eax
  1011ea:	05 04 04 00 00       	add    $0x404,%eax
  1011ef:	83 ec 08             	sub    $0x8,%esp
  1011f2:	6a 11                	push   $0x11
  1011f4:	50                   	push   %eax
  1011f5:	e8 ee f6 ff ff       	call   1008e8 <_ZN12Port8BitSlow5WriteEh>
  1011fa:	83 c4 10             	add    $0x10,%esp
  1011fd:	8b 45 08             	mov    0x8(%ebp),%eax
  101200:	05 14 04 00 00       	add    $0x414,%eax
  101205:	83 ec 08             	sub    $0x8,%esp
  101208:	6a 11                	push   $0x11
  10120a:	50                   	push   %eax
  10120b:	e8 d8 f6 ff ff       	call   1008e8 <_ZN12Port8BitSlow5WriteEh>
  101210:	83 c4 10             	add    $0x10,%esp
  101213:	8b 45 08             	mov    0x8(%ebp),%eax
  101216:	8d 90 0c 04 00 00    	lea    0x40c(%eax),%edx
  10121c:	0f b7 45 e4          	movzwl -0x1c(%ebp),%eax
  101220:	0f b6 c0             	movzbl %al,%eax
  101223:	83 ec 08             	sub    $0x8,%esp
  101226:	50                   	push   %eax
  101227:	52                   	push   %edx
  101228:	e8 bb f6 ff ff       	call   1008e8 <_ZN12Port8BitSlow5WriteEh>
  10122d:	83 c4 10             	add    $0x10,%esp
  101230:	8b 45 08             	mov    0x8(%ebp),%eax
  101233:	8d 90 1c 04 00 00    	lea    0x41c(%eax),%edx
  101239:	0f b7 45 e4          	movzwl -0x1c(%ebp),%eax
  10123d:	83 c0 08             	add    $0x8,%eax
  101240:	0f b6 c0             	movzbl %al,%eax
  101243:	83 ec 08             	sub    $0x8,%esp
  101246:	50                   	push   %eax
  101247:	52                   	push   %edx
  101248:	e8 9b f6 ff ff       	call   1008e8 <_ZN12Port8BitSlow5WriteEh>
  10124d:	83 c4 10             	add    $0x10,%esp
  101250:	8b 45 08             	mov    0x8(%ebp),%eax
  101253:	05 0c 04 00 00       	add    $0x40c,%eax
  101258:	83 ec 08             	sub    $0x8,%esp
  10125b:	6a 04                	push   $0x4
  10125d:	50                   	push   %eax
  10125e:	e8 85 f6 ff ff       	call   1008e8 <_ZN12Port8BitSlow5WriteEh>
  101263:	83 c4 10             	add    $0x10,%esp
  101266:	8b 45 08             	mov    0x8(%ebp),%eax
  101269:	05 1c 04 00 00       	add    $0x41c,%eax
  10126e:	83 ec 08             	sub    $0x8,%esp
  101271:	6a 02                	push   $0x2
  101273:	50                   	push   %eax
  101274:	e8 6f f6 ff ff       	call   1008e8 <_ZN12Port8BitSlow5WriteEh>
  101279:	83 c4 10             	add    $0x10,%esp
  10127c:	8b 45 08             	mov    0x8(%ebp),%eax
  10127f:	05 0c 04 00 00       	add    $0x40c,%eax
  101284:	83 ec 08             	sub    $0x8,%esp
  101287:	6a 01                	push   $0x1
  101289:	50                   	push   %eax
  10128a:	e8 59 f6 ff ff       	call   1008e8 <_ZN12Port8BitSlow5WriteEh>
  10128f:	83 c4 10             	add    $0x10,%esp
  101292:	8b 45 08             	mov    0x8(%ebp),%eax
  101295:	05 1c 04 00 00       	add    $0x41c,%eax
  10129a:	83 ec 08             	sub    $0x8,%esp
  10129d:	6a 01                	push   $0x1
  10129f:	50                   	push   %eax
  1012a0:	e8 43 f6 ff ff       	call   1008e8 <_ZN12Port8BitSlow5WriteEh>
  1012a5:	83 c4 10             	add    $0x10,%esp
  1012a8:	8b 45 08             	mov    0x8(%ebp),%eax
  1012ab:	05 0c 04 00 00       	add    $0x40c,%eax
  1012b0:	83 ec 08             	sub    $0x8,%esp
  1012b3:	6a 00                	push   $0x0
  1012b5:	50                   	push   %eax
  1012b6:	e8 2d f6 ff ff       	call   1008e8 <_ZN12Port8BitSlow5WriteEh>
  1012bb:	83 c4 10             	add    $0x10,%esp
  1012be:	8b 45 08             	mov    0x8(%ebp),%eax
  1012c1:	05 1c 04 00 00       	add    $0x41c,%eax
  1012c6:	83 ec 08             	sub    $0x8,%esp
  1012c9:	6a 00                	push   $0x0
  1012cb:	50                   	push   %eax
  1012cc:	e8 17 f6 ff ff       	call   1008e8 <_ZN12Port8BitSlow5WriteEh>
  1012d1:	83 c4 10             	add    $0x10,%esp
  1012d4:	66 c7 45 e9 ff 07    	movw   $0x7ff,-0x17(%ebp)
  1012da:	8d 83 90 00 20 00    	lea    0x200090(%ebx),%eax
  1012e0:	89 45 eb             	mov    %eax,-0x15(%ebp)
  1012e3:	0f 01 5d e9          	lidtl  -0x17(%ebp)
  1012e7:	90                   	nop
  1012e8:	8b 5d fc             	mov    -0x4(%ebp),%ebx
  1012eb:	c9                   	leave  
  1012ec:	c3                   	ret    
  1012ed:	90                   	nop

001012ee <_ZN16InterruptManagerD1Ev>:
  1012ee:	55                   	push   %ebp
  1012ef:	89 e5                	mov    %esp,%ebp
  1012f1:	53                   	push   %ebx
  1012f2:	83 ec 04             	sub    $0x4,%esp
  1012f5:	e8 8d f0 ff ff       	call   100387 <__x86.get_pc_thunk.bx>
  1012fa:	81 c3 76 0a 00 00    	add    $0xa76,%ebx
  101300:	83 ec 0c             	sub    $0xc,%esp
  101303:	ff 75 08             	push   0x8(%ebp)
  101306:	e8 b1 00 00 00       	call   1013bc <_ZN16InterruptManager10DeactivateEv>
  10130b:	83 c4 10             	add    $0x10,%esp
  10130e:	8b 45 08             	mov    0x8(%ebp),%eax
  101311:	05 1c 04 00 00       	add    $0x41c,%eax
  101316:	83 ec 0c             	sub    $0xc,%esp
  101319:	50                   	push   %eax
  10131a:	e8 9f f5 ff ff       	call   1008be <_ZN12Port8BitSlowD1Ev>
  10131f:	83 c4 10             	add    $0x10,%esp
  101322:	8b 45 08             	mov    0x8(%ebp),%eax
  101325:	05 14 04 00 00       	add    $0x414,%eax
  10132a:	83 ec 0c             	sub    $0xc,%esp
  10132d:	50                   	push   %eax
  10132e:	e8 8b f5 ff ff       	call   1008be <_ZN12Port8BitSlowD1Ev>
  101333:	83 c4 10             	add    $0x10,%esp
  101336:	8b 45 08             	mov    0x8(%ebp),%eax
  101339:	05 0c 04 00 00       	add    $0x40c,%eax
  10133e:	83 ec 0c             	sub    $0xc,%esp
  101341:	50                   	push   %eax
  101342:	e8 77 f5 ff ff       	call   1008be <_ZN12Port8BitSlowD1Ev>
  101347:	83 c4 10             	add    $0x10,%esp
  10134a:	8b 45 08             	mov    0x8(%ebp),%eax
  10134d:	05 04 04 00 00       	add    $0x404,%eax
  101352:	83 ec 0c             	sub    $0xc,%esp
  101355:	50                   	push   %eax
  101356:	e8 63 f5 ff ff       	call   1008be <_ZN12Port8BitSlowD1Ev>
  10135b:	83 c4 10             	add    $0x10,%esp
  10135e:	90                   	nop
  10135f:	8b 5d fc             	mov    -0x4(%ebp),%ebx
  101362:	c9                   	leave  
  101363:	c3                   	ret    

00101364 <_ZN16InterruptManager23HardwareInterruptOffsetEv>:
  101364:	55                   	push   %ebp
  101365:	89 e5                	mov    %esp,%ebp
  101367:	e8 17 f0 ff ff       	call   100383 <__x86.get_pc_thunk.ax>
  10136c:	05 04 0a 00 00       	add    $0xa04,%eax
  101371:	8b 45 08             	mov    0x8(%ebp),%eax
  101374:	0f b7 80 00 04 00 00 	movzwl 0x400(%eax),%eax
  10137b:	5d                   	pop    %ebp
  10137c:	c3                   	ret    
  10137d:	90                   	nop

0010137e <_ZN16InterruptManager8ActivateEv>:
  10137e:	55                   	push   %ebp
  10137f:	89 e5                	mov    %esp,%ebp
  101381:	53                   	push   %ebx
  101382:	83 ec 04             	sub    $0x4,%esp
  101385:	e8 fd ef ff ff       	call   100387 <__x86.get_pc_thunk.bx>
  10138a:	81 c3 e6 09 00 00    	add    $0x9e6,%ebx
  101390:	8b 83 90 08 20 00    	mov    0x200890(%ebx),%eax
  101396:	85 c0                	test   %eax,%eax
  101398:	74 12                	je     1013ac <_ZN16InterruptManager8ActivateEv+0x2e>
  10139a:	8b 83 90 08 20 00    	mov    0x200890(%ebx),%eax
  1013a0:	83 ec 0c             	sub    $0xc,%esp
  1013a3:	50                   	push   %eax
  1013a4:	e8 13 00 00 00       	call   1013bc <_ZN16InterruptManager10DeactivateEv>
  1013a9:	83 c4 10             	add    $0x10,%esp
  1013ac:	8b 45 08             	mov    0x8(%ebp),%eax
  1013af:	89 83 90 08 20 00    	mov    %eax,0x200890(%ebx)
  1013b5:	fb                   	sti    
  1013b6:	90                   	nop
  1013b7:	8b 5d fc             	mov    -0x4(%ebp),%ebx
  1013ba:	c9                   	leave  
  1013bb:	c3                   	ret    

001013bc <_ZN16InterruptManager10DeactivateEv>:
  1013bc:	55                   	push   %ebp
  1013bd:	89 e5                	mov    %esp,%ebp
  1013bf:	e8 bf ef ff ff       	call   100383 <__x86.get_pc_thunk.ax>
  1013c4:	05 ac 09 00 00       	add    $0x9ac,%eax
  1013c9:	8b 90 90 08 20 00    	mov    0x200890(%eax),%edx
  1013cf:	39 55 08             	cmp    %edx,0x8(%ebp)
  1013d2:	75 0b                	jne    1013df <_ZN16InterruptManager10DeactivateEv+0x23>
  1013d4:	c7 80 90 08 20 00 00 	movl   $0x0,0x200890(%eax)
  1013db:	00 00 00 
  1013de:	fa                   	cli    
  1013df:	90                   	nop
  1013e0:	5d                   	pop    %ebp
  1013e1:	c3                   	ret    

001013e2 <_ZN16InterruptManager15HandleInterruptEhj>:
  1013e2:	55                   	push   %ebp
  1013e3:	89 e5                	mov    %esp,%ebp
  1013e5:	83 ec 18             	sub    $0x18,%esp
  1013e8:	e8 96 ef ff ff       	call   100383 <__x86.get_pc_thunk.ax>
  1013ed:	05 83 09 00 00       	add    $0x983,%eax
  1013f2:	8b 55 08             	mov    0x8(%ebp),%edx
  1013f5:	88 55 f4             	mov    %dl,-0xc(%ebp)
  1013f8:	8b 90 90 08 20 00    	mov    0x200890(%eax),%edx
  1013fe:	85 d2                	test   %edx,%edx
  101400:	74 1c                	je     10141e <_ZN16InterruptManager15HandleInterruptEhj+0x3c>
  101402:	8b 80 90 08 20 00    	mov    0x200890(%eax),%eax
  101408:	0f b6 55 f4          	movzbl -0xc(%ebp),%edx
  10140c:	83 ec 04             	sub    $0x4,%esp
  10140f:	ff 75 0c             	push   0xc(%ebp)
  101412:	52                   	push   %edx
  101413:	50                   	push   %eax
  101414:	e8 0b 00 00 00       	call   101424 <_ZN16InterruptManager17DoHandleInterruptEhj>
  101419:	83 c4 10             	add    $0x10,%esp
  10141c:	eb 03                	jmp    101421 <_ZN16InterruptManager15HandleInterruptEhj+0x3f>
  10141e:	8b 45 0c             	mov    0xc(%ebp),%eax
  101421:	c9                   	leave  
  101422:	c3                   	ret    
  101423:	90                   	nop

00101424 <_ZN16InterruptManager17DoHandleInterruptEhj>:
  101424:	55                   	push   %ebp
  101425:	89 e5                	mov    %esp,%ebp
  101427:	53                   	push   %ebx
  101428:	83 ec 14             	sub    $0x14,%esp
  10142b:	e8 57 ef ff ff       	call   100387 <__x86.get_pc_thunk.bx>
  101430:	81 c3 40 09 00 00    	add    $0x940,%ebx
  101436:	8b 45 0c             	mov    0xc(%ebp),%eax
  101439:	88 45 f4             	mov    %al,-0xc(%ebp)
  10143c:	0f b6 55 f4          	movzbl -0xc(%ebp),%edx
  101440:	8b 45 08             	mov    0x8(%ebp),%eax
  101443:	8b 04 90             	mov    (%eax,%edx,4),%eax
  101446:	85 c0                	test   %eax,%eax
  101448:	74 29                	je     101473 <_ZN16InterruptManager17DoHandleInterruptEhj+0x4f>
  10144a:	0f b6 55 f4          	movzbl -0xc(%ebp),%edx
  10144e:	8b 45 08             	mov    0x8(%ebp),%eax
  101451:	8b 04 90             	mov    (%eax,%edx,4),%eax
  101454:	8b 00                	mov    (%eax),%eax
  101456:	8b 00                	mov    (%eax),%eax
  101458:	0f b6 4d f4          	movzbl -0xc(%ebp),%ecx
  10145c:	8b 55 08             	mov    0x8(%ebp),%edx
  10145f:	8b 14 8a             	mov    (%edx,%ecx,4),%edx
  101462:	83 ec 08             	sub    $0x8,%esp
  101465:	ff 75 10             	push   0x10(%ebp)
  101468:	52                   	push   %edx
  101469:	ff d0                	call   *%eax
  10146b:	83 c4 10             	add    $0x10,%esp
  10146e:	89 45 10             	mov    %eax,0x10(%ebp)
  101471:	eb 28                	jmp    10149b <_ZN16InterruptManager17DoHandleInterruptEhj+0x77>
  101473:	80 7d f4 20          	cmpb   $0x20,-0xc(%ebp)
  101477:	74 22                	je     10149b <_ZN16InterruptManager17DoHandleInterruptEhj+0x77>
  101479:	83 ec 0c             	sub    $0xc,%esp
  10147c:	8d 83 df f9 ff ff    	lea    -0x621(%ebx),%eax
  101482:	50                   	push   %eax
  101483:	e8 99 eb ff ff       	call   100021 <_Z6printfPKc>
  101488:	83 c4 10             	add    $0x10,%esp
  10148b:	0f b6 45 f4          	movzbl -0xc(%ebp),%eax
  10148f:	83 ec 0c             	sub    $0xc,%esp
  101492:	50                   	push   %eax
  101493:	e8 74 ed ff ff       	call   10020c <_Z9printfHexh>
  101498:	83 c4 10             	add    $0x10,%esp
  10149b:	80 7d f4 1f          	cmpb   $0x1f,-0xc(%ebp)
  10149f:	76 38                	jbe    1014d9 <_ZN16InterruptManager17DoHandleInterruptEhj+0xb5>
  1014a1:	80 7d f4 30          	cmpb   $0x30,-0xc(%ebp)
  1014a5:	77 32                	ja     1014d9 <_ZN16InterruptManager17DoHandleInterruptEhj+0xb5>
  1014a7:	8b 45 08             	mov    0x8(%ebp),%eax
  1014aa:	05 04 04 00 00       	add    $0x404,%eax
  1014af:	83 ec 08             	sub    $0x8,%esp
  1014b2:	6a 20                	push   $0x20
  1014b4:	50                   	push   %eax
  1014b5:	e8 2e f4 ff ff       	call   1008e8 <_ZN12Port8BitSlow5WriteEh>
  1014ba:	83 c4 10             	add    $0x10,%esp
  1014bd:	80 7d f4 27          	cmpb   $0x27,-0xc(%ebp)
  1014c1:	76 16                	jbe    1014d9 <_ZN16InterruptManager17DoHandleInterruptEhj+0xb5>
  1014c3:	8b 45 08             	mov    0x8(%ebp),%eax
  1014c6:	05 14 04 00 00       	add    $0x414,%eax
  1014cb:	83 ec 08             	sub    $0x8,%esp
  1014ce:	6a 20                	push   $0x20
  1014d0:	50                   	push   %eax
  1014d1:	e8 12 f4 ff ff       	call   1008e8 <_ZN12Port8BitSlow5WriteEh>
  1014d6:	83 c4 10             	add    $0x10,%esp
  1014d9:	8b 45 10             	mov    0x10(%ebp),%eax
  1014dc:	8b 5d fc             	mov    -0x4(%ebp),%ebx
  1014df:	c9                   	leave  
  1014e0:	c3                   	ret    
  1014e1:	90                   	nop

001014e2 <_ZN14KeyboardDriverC1EP16InterruptManager>:
  1014e2:	55                   	push   %ebp
  1014e3:	89 e5                	mov    %esp,%ebp
  1014e5:	53                   	push   %ebx
  1014e6:	83 ec 14             	sub    $0x14,%esp
  1014e9:	e8 99 ee ff ff       	call   100387 <__x86.get_pc_thunk.bx>
  1014ee:	81 c3 82 08 00 00    	add    $0x882,%ebx
  1014f4:	8b 45 08             	mov    0x8(%ebp),%eax
  1014f7:	83 ec 04             	sub    $0x4,%esp
  1014fa:	6a 21                	push   $0x21
  1014fc:	ff 75 0c             	push   0xc(%ebp)
  1014ff:	50                   	push   %eax
  101500:	e8 bf f5 ff ff       	call   100ac4 <_ZN16InterruptHandlerC1EP16InterruptManagerh>
  101505:	83 c4 10             	add    $0x10,%esp
  101508:	8d 93 5c 00 00 00    	lea    0x5c(%ebx),%edx
  10150e:	8b 45 08             	mov    0x8(%ebp),%eax
  101511:	89 10                	mov    %edx,(%eax)
  101513:	8b 45 08             	mov    0x8(%ebp),%eax
  101516:	83 c0 0c             	add    $0xc,%eax
  101519:	83 ec 08             	sub    $0x8,%esp
  10151c:	6a 60                	push   $0x60
  10151e:	50                   	push   %eax
  10151f:	e8 4e f1 ff ff       	call   100672 <_ZN8Port8BitC1Et>
  101524:	83 c4 10             	add    $0x10,%esp
  101527:	8b 45 08             	mov    0x8(%ebp),%eax
  10152a:	83 c0 14             	add    $0x14,%eax
  10152d:	83 ec 08             	sub    $0x8,%esp
  101530:	6a 64                	push   $0x64
  101532:	50                   	push   %eax
  101533:	e8 3a f1 ff ff       	call   100672 <_ZN8Port8BitC1Et>
  101538:	83 c4 10             	add    $0x10,%esp
  10153b:	eb 12                	jmp    10154f <_ZN14KeyboardDriverC1EP16InterruptManager+0x6d>
  10153d:	8b 45 08             	mov    0x8(%ebp),%eax
  101540:	83 c0 0c             	add    $0xc,%eax
  101543:	83 ec 0c             	sub    $0xc,%esp
  101546:	50                   	push   %eax
  101547:	e8 b4 f1 ff ff       	call   100700 <_ZN8Port8Bit4ReadEv>
  10154c:	83 c4 10             	add    $0x10,%esp
  10154f:	8b 45 08             	mov    0x8(%ebp),%eax
  101552:	83 c0 14             	add    $0x14,%eax
  101555:	83 ec 0c             	sub    $0xc,%esp
  101558:	50                   	push   %eax
  101559:	e8 a2 f1 ff ff       	call   100700 <_ZN8Port8Bit4ReadEv>
  10155e:	83 c4 10             	add    $0x10,%esp
  101561:	0f b6 c0             	movzbl %al,%eax
  101564:	83 e0 01             	and    $0x1,%eax
  101567:	85 c0                	test   %eax,%eax
  101569:	0f 95 c0             	setne  %al
  10156c:	84 c0                	test   %al,%al
  10156e:	75 cd                	jne    10153d <_ZN14KeyboardDriverC1EP16InterruptManager+0x5b>
  101570:	8b 45 08             	mov    0x8(%ebp),%eax
  101573:	83 c0 14             	add    $0x14,%eax
  101576:	83 ec 08             	sub    $0x8,%esp
  101579:	68 ae 00 00 00       	push   $0xae
  10157e:	50                   	push   %eax
  10157f:	e8 56 f1 ff ff       	call   1006da <_ZN8Port8Bit5WriteEh>
  101584:	83 c4 10             	add    $0x10,%esp
  101587:	8b 45 08             	mov    0x8(%ebp),%eax
  10158a:	83 c0 14             	add    $0x14,%eax
  10158d:	83 ec 08             	sub    $0x8,%esp
  101590:	6a 20                	push   $0x20
  101592:	50                   	push   %eax
  101593:	e8 42 f1 ff ff       	call   1006da <_ZN8Port8Bit5WriteEh>
  101598:	83 c4 10             	add    $0x10,%esp
  10159b:	8b 45 08             	mov    0x8(%ebp),%eax
  10159e:	83 c0 0c             	add    $0xc,%eax
  1015a1:	83 ec 0c             	sub    $0xc,%esp
  1015a4:	50                   	push   %eax
  1015a5:	e8 56 f1 ff ff       	call   100700 <_ZN8Port8Bit4ReadEv>
  1015aa:	83 c4 10             	add    $0x10,%esp
  1015ad:	83 c8 01             	or     $0x1,%eax
  1015b0:	83 e0 ef             	and    $0xffffffef,%eax
  1015b3:	88 45 f7             	mov    %al,-0x9(%ebp)
  1015b6:	8b 45 08             	mov    0x8(%ebp),%eax
  1015b9:	83 c0 14             	add    $0x14,%eax
  1015bc:	83 ec 08             	sub    $0x8,%esp
  1015bf:	6a 60                	push   $0x60
  1015c1:	50                   	push   %eax
  1015c2:	e8 13 f1 ff ff       	call   1006da <_ZN8Port8Bit5WriteEh>
  1015c7:	83 c4 10             	add    $0x10,%esp
  1015ca:	8b 45 08             	mov    0x8(%ebp),%eax
  1015cd:	8d 50 0c             	lea    0xc(%eax),%edx
  1015d0:	0f b6 45 f7          	movzbl -0x9(%ebp),%eax
  1015d4:	83 ec 08             	sub    $0x8,%esp
  1015d7:	50                   	push   %eax
  1015d8:	52                   	push   %edx
  1015d9:	e8 fc f0 ff ff       	call   1006da <_ZN8Port8Bit5WriteEh>
  1015de:	83 c4 10             	add    $0x10,%esp
  1015e1:	8b 45 08             	mov    0x8(%ebp),%eax
  1015e4:	83 c0 0c             	add    $0xc,%eax
  1015e7:	83 ec 08             	sub    $0x8,%esp
  1015ea:	68 f4 00 00 00       	push   $0xf4
  1015ef:	50                   	push   %eax
  1015f0:	e8 e5 f0 ff ff       	call   1006da <_ZN8Port8Bit5WriteEh>
  1015f5:	83 c4 10             	add    $0x10,%esp
  1015f8:	90                   	nop
  1015f9:	8b 5d fc             	mov    -0x4(%ebp),%ebx
  1015fc:	c9                   	leave  
  1015fd:	c3                   	ret    

001015fe <_ZN14KeyboardDriverD1Ev>:
  1015fe:	55                   	push   %ebp
  1015ff:	89 e5                	mov    %esp,%ebp
  101601:	53                   	push   %ebx
  101602:	83 ec 04             	sub    $0x4,%esp
  101605:	e8 7d ed ff ff       	call   100387 <__x86.get_pc_thunk.bx>
  10160a:	81 c3 66 07 00 00    	add    $0x766,%ebx
  101610:	8d 93 5c 00 00 00    	lea    0x5c(%ebx),%edx
  101616:	8b 45 08             	mov    0x8(%ebp),%eax
  101619:	89 10                	mov    %edx,(%eax)
  10161b:	8b 45 08             	mov    0x8(%ebp),%eax
  10161e:	83 c0 14             	add    $0x14,%eax
  101621:	83 ec 0c             	sub    $0xc,%esp
  101624:	50                   	push   %eax
  101625:	e8 86 f0 ff ff       	call   1006b0 <_ZN8Port8BitD1Ev>
  10162a:	83 c4 10             	add    $0x10,%esp
  10162d:	8b 45 08             	mov    0x8(%ebp),%eax
  101630:	83 c0 0c             	add    $0xc,%eax
  101633:	83 ec 0c             	sub    $0xc,%esp
  101636:	50                   	push   %eax
  101637:	e8 74 f0 ff ff       	call   1006b0 <_ZN8Port8BitD1Ev>
  10163c:	83 c4 10             	add    $0x10,%esp
  10163f:	8b 45 08             	mov    0x8(%ebp),%eax
  101642:	83 ec 0c             	sub    $0xc,%esp
  101645:	50                   	push   %eax
  101646:	e8 bd f4 ff ff       	call   100b08 <_ZN16InterruptHandlerD1Ev>
  10164b:	83 c4 10             	add    $0x10,%esp
  10164e:	90                   	nop
  10164f:	8b 5d fc             	mov    -0x4(%ebp),%ebx
  101652:	c9                   	leave  
  101653:	c3                   	ret    

00101654 <_ZN14KeyboardDriver15HandleInterruptEj>:
  101654:	55                   	push   %ebp
  101655:	89 e5                	mov    %esp,%ebp
  101657:	53                   	push   %ebx
  101658:	83 ec 14             	sub    $0x14,%esp
  10165b:	e8 27 ed ff ff       	call   100387 <__x86.get_pc_thunk.bx>
  101660:	81 c3 10 07 00 00    	add    $0x710,%ebx
  101666:	8b 45 08             	mov    0x8(%ebp),%eax
  101669:	83 c0 0c             	add    $0xc,%eax
  10166c:	83 ec 0c             	sub    $0xc,%esp
  10166f:	50                   	push   %eax
  101670:	e8 8b f0 ff ff       	call   100700 <_ZN8Port8Bit4ReadEv>
  101675:	83 c4 10             	add    $0x10,%esp
  101678:	88 45 f7             	mov    %al,-0x9(%ebp)
  10167b:	83 ec 0c             	sub    $0xc,%esp
  10167e:	8d 83 f5 f9 ff ff    	lea    -0x60b(%ebx),%eax
  101684:	50                   	push   %eax
  101685:	e8 97 e9 ff ff       	call   100021 <_Z6printfPKc>
  10168a:	83 c4 10             	add    $0x10,%esp
  10168d:	0f b6 45 f7          	movzbl -0x9(%ebp),%eax
  101691:	83 ec 0c             	sub    $0xc,%esp
  101694:	50                   	push   %eax
  101695:	e8 72 eb ff ff       	call   10020c <_Z9printfHexh>
  10169a:	83 c4 10             	add    $0x10,%esp
  10169d:	8b 45 0c             	mov    0xc(%ebp),%eax
  1016a0:	8b 5d fc             	mov    -0x4(%ebp),%ebx
  1016a3:	c9                   	leave  
  1016a4:	c3                   	ret    
  1016a5:	66 90                	xchg   %ax,%ax
  1016a7:	90                   	nop
  1016a8:	30 30                	xor    %dh,(%eax)
  1016aa:	00 30                	add    %dh,(%eax)
  1016ac:	31 32                	xor    %esi,(%edx)
  1016ae:	33 34 35 36 37 38 39 	xor    0x39383736(,%esi,1),%esi
  1016b5:	41                   	inc    %ecx
  1016b6:	42                   	inc    %edx
  1016b7:	43                   	inc    %ebx
  1016b8:	44                   	inc    %esp
  1016b9:	45                   	inc    %ebp
  1016ba:	46                   	inc    %esi
  1016bb:	00 30                	add    %dh,(%eax)
  1016bd:	78 00                	js     1016bf <_ZN14KeyboardDriver15HandleInterruptEj+0x6b>
  1016bf:	0a 00                	or     (%eax),%al
  1016c1:	00 00                	add    %al,(%eax)
  1016c3:	00 3d 3d 3d 3d 3d    	add    %bh,0x3d3d3d3d
  1016c9:	3d 3d 3d 3d 3d       	cmp    $0x3d3d3d3d,%eax
  1016ce:	3d 3d 3d 3d 3d       	cmp    $0x3d3d3d3d,%eax
  1016d3:	3d 3d 3d 3d 3d       	cmp    $0x3d3d3d3d,%eax
  1016d8:	3d 3d 3d 3d 3d       	cmp    $0x3d3d3d3d,%eax
  1016dd:	3d 3d 3d 3d 3d       	cmp    $0x3d3d3d3d,%eax
  1016e2:	3d 3d 3d 3d 3d       	cmp    $0x3d3d3d3d,%eax
  1016e7:	3d 3d 3d 3d 3d       	cmp    $0x3d3d3d3d,%eax
  1016ec:	3d 3d 3d 3d 3d       	cmp    $0x3d3d3d3d,%eax
  1016f1:	3d 3d 0a 00 00       	cmp    $0xa3d,%eax
  1016f6:	00 00                	add    %al,(%eax)
  1016f8:	20 20                	and    %ah,(%eax)
  1016fa:	20 57 65             	and    %dl,0x65(%edi)
  1016fd:	6c                   	insb   (%dx),%es:(%edi)
  1016fe:	63 6f 6d             	arpl   %bp,0x6d(%edi)
  101701:	65 20 74 6f 20       	and    %dh,%gs:0x20(%edi,%ebp,2)
  101706:	44                   	inc    %esp
  101707:	79 73                	jns    10177c <_ZN14KeyboardDriver15HandleInterruptEj+0x128>
  101709:	4f                   	dec    %edi
  10170a:	53                   	push   %ebx
  10170b:	20 2d 20 54 68 65    	and    %ch,0x65685420
  101711:	20 55 6c             	and    %dl,0x6c(%ebp)
  101714:	74 69                	je     10177f <_ZN14KeyboardDriver15HandleInterruptEj+0x12b>
  101716:	6d                   	insl   (%dx),%es:(%edi)
  101717:	61                   	popa   
  101718:	74 65                	je     10177f <_ZN14KeyboardDriver15HandleInterruptEj+0x12b>
  10171a:	20 33                	and    %dh,(%ebx)
  10171c:	32 2d 62 69 74 20    	xor    0x20746962,%ch
  101722:	4f                   	dec    %edi
  101723:	53                   	push   %ebx
  101724:	21 20                	and    %esp,(%eax)
  101726:	20 0a                	and    %cl,(%edx)
  101728:	00 00                	add    %al,(%eax)
  10172a:	00 00                	add    %al,(%eax)
  10172c:	20 20                	and    %ah,(%eax)
  10172e:	20 20                	and    %ah,(%eax)
  101730:	20 20                	and    %ah,(%eax)
  101732:	41                   	inc    %ecx
  101733:	6e                   	outsb  %ds:(%esi),(%dx)
  101734:	20 6f 70             	and    %ch,0x70(%edi)
  101737:	65 72 61             	gs jb  10179b <_ZN14KeyboardDriver15HandleInterruptEj+0x147>
  10173a:	74 69                	je     1017a5 <_ZN14KeyboardDriver15HandleInterruptEj+0x151>
  10173c:	6e                   	outsb  %ds:(%esi),(%dx)
  10173d:	67 20 73 79          	and    %dh,0x79(%bp,%di)
  101741:	73 74                	jae    1017b7 <_ZN14KeyboardDriver15HandleInterruptEj+0x163>
  101743:	65 6d                	gs insl (%dx),%es:(%edi)
  101745:	20 62 79             	and    %ah,0x79(%edx)
  101748:	20 44 79 73          	and    %al,0x73(%ecx,%edi,2)
  10174c:	20 0a                	and    %cl,(%edx)
  10174e:	00 55 4e             	add    %dl,0x4e(%ebp)
  101751:	48                   	dec    %eax
  101752:	41                   	inc    %ecx
  101753:	4e                   	dec    %esi
  101754:	44                   	inc    %esp
  101755:	4c                   	dec    %esp
  101756:	45                   	inc    %ebp
  101757:	44                   	inc    %esp
  101758:	20 49 4e             	and    %cl,0x4e(%ecx)
  10175b:	54                   	push   %esp
  10175c:	45                   	inc    %ebp
  10175d:	52                   	push   %edx
  10175e:	52                   	push   %edx
  10175f:	55                   	push   %ebp
  101760:	50                   	push   %eax
  101761:	54                   	push   %esp
  101762:	3a 20                	cmp    (%eax),%ah
  101764:	00 4b 45             	add    %cl,0x45(%ebx)
  101767:	59                   	pop    %ecx
  101768:	42                   	inc    %edx
  101769:	4f                   	dec    %edi
  10176a:	41                   	inc    %ecx
  10176b:	52                   	push   %edx
  10176c:	44                   	inc    %esp
  10176d:	3a 20                	cmp    (%eax),%ah
	...
